(imatplotlib.font_manager
FontManager
p1
(dp2
S'afm_lookup_cache'
p3
(dp4
sS'ttflist'
p5
(lp6
ccopy_reg
_reconstructor
p7
(cmatplotlib.font_manager
FontEntry
p8
c__builtin__
object
p9
NtRp10
(dp11
S'style'
p12
S'normal'
p13
sS'name'
p14
S'cmb10'
p15
sS'weight'
p16
I400
sS'stretch'
p17
g13
sS'variant'
p18
g13
sS'fname'
p19
S'/usr/share/matplotlib/mpl-data/fonts/ttf/cmb10.ttf'
p20
sS'size'
p21
S'scalable'
p22
sbag7
(g8
g9
NtRp23
(dp24
g12
g13
sg14
S'cmex10'
p25
sg16
I400
sg17
g13
sg18
g13
sg19
S'/usr/share/matplotlib/mpl-data/fonts/ttf/cmex10.ttf'
p26
sg21
g22
sbag7
(g8
g9
NtRp27
(dp28
g12
S'italic'
p29
sg14
S'STIXNonUnicode'
p30
sg16
I400
sg17
g13
sg18
g13
sg19
S'/usr/share/matplotlib/mpl-data/fonts/ttf/STIXNonUniIta.ttf'
p31
sg21
g22
sbag7
(g8
g9
NtRp32
(dp33
g12
g13
sg14
S'STIXNonUnicode'
p34
sg16
I400
sg17
g13
sg18
g13
sg19
S'/usr/share/matplotlib/mpl-data/fonts/ttf/STIXNonUni.ttf'
p35
sg21
g22
sbag7
(g8
g9
NtRp36
(dp37
g12
g13
sg14
S'STIXSizeThreeSym'
p38
sg16
I400
sg17
g13
sg18
g13
sg19
S'/usr/share/matplotlib/mpl-data/fonts/ttf/STIXSizThreeSymReg.ttf'
p39
sg21
g22
sbag7
(g8
g9
NtRp40
(dp41
g12
g13
sg14
S'STIXSizeTwoSym'
p42
sg16
I700
sg17
g13
sg18
g13
sg19
S'/usr/share/matplotlib/mpl-data/fonts/ttf/STIXSizTwoSymBol.ttf'
p43
sg21
g22
sbag7
(g8
g9
NtRp44
(dp45
g12
g13
sg14
S'cmtt10'
p46
sg16
I400
sg17
g13
sg18
g13
sg19
S'/usr/share/matplotlib/mpl-data/fonts/ttf/cmtt10.ttf'
p47
sg21
g22
sbag7
(g8
g9
NtRp48
(dp49
g12
g13
sg14
S'STIXGeneral'
p50
sg16
I400
sg17
g13
sg18
g13
sg19
S'/usr/share/matplotlib/mpl-data/fonts/ttf/STIXGeneral.ttf'
p51
sg21
g22
sbag7
(g8
g9
NtRp52
(dp53
g12
g29
sg14
S'STIXNonUnicode'
p54
sg16
I700
sg17
g13
sg18
g13
sg19
S'/usr/share/matplotlib/mpl-data/fonts/ttf/STIXNonUniBolIta.ttf'
p55
sg21
g22
sbag7
(g8
g9
NtRp56
(dp57
g12
g13
sg14
S'STIXSizeFiveSym'
p58
sg16
I400
sg17
g13
sg18
g13
sg19
S'/usr/share/matplotlib/mpl-data/fonts/ttf/STIXSizFiveSymReg.ttf'
p59
sg21
g22
sbag7
(g8
g9
NtRp60
(dp61
g12
g13
sg14
S'STIXSizeOneSym'
p62
sg16
I700
sg17
g13
sg18
g13
sg19
S'/usr/share/matplotlib/mpl-data/fonts/ttf/STIXSizOneSymBol.ttf'
p63
sg21
g22
sbag7
(g8
g9
NtRp64
(dp65
g12
g13
sg14
S'STIXGeneral'
p66
sg16
I700
sg17
g13
sg18
g13
sg19
S'/usr/share/matplotlib/mpl-data/fonts/ttf/STIXGeneralBol.ttf'
p67
sg21
g22
sbag7
(g8
g9
NtRp68
(dp69
g12
g13
sg14
S'cmr10'
p70
sg16
I400
sg17
g13
sg18
g13
sg19
S'/usr/share/matplotlib/mpl-data/fonts/ttf/cmr10.ttf'
p71
sg21
g22
sbag7
(g8
g9
NtRp72
(dp73
g12
g13
sg14
S'STIXSizeTwoSym'
p74
sg16
I400
sg17
g13
sg18
g13
sg19
S'/usr/share/matplotlib/mpl-data/fonts/ttf/STIXSizTwoSymReg.ttf'
p75
sg21
g22
sbag7
(g8
g9
NtRp76
(dp77
g12
g13
sg14
S'STIXSizeOneSym'
p78
sg16
I400
sg17
g13
sg18
g13
sg19
S'/usr/share/matplotlib/mpl-data/fonts/ttf/STIXSizOneSymReg.ttf'
p79
sg21
g22
sbag7
(g8
g9
NtRp80
(dp81
g12
g13
sg14
S'cmsy10'
p82
sg16
I400
sg17
g13
sg18
g13
sg19
S'/usr/share/matplotlib/mpl-data/fonts/ttf/cmsy10.ttf'
p83
sg21
g22
sbag7
(g8
g9
NtRp84
(dp85
g12
g13
sg14
S'STIXSizeThreeSym'
p86
sg16
I700
sg17
g13
sg18
g13
sg19
S'/usr/share/matplotlib/mpl-data/fonts/ttf/STIXSizThreeSymBol.ttf'
p87
sg21
g22
sbag7
(g8
g9
NtRp88
(dp89
g12
g13
sg14
S'cmss10'
p90
sg16
I400
sg17
g13
sg18
g13
sg19
S'/usr/share/matplotlib/mpl-data/fonts/ttf/cmss10.ttf'
p91
sg21
g22
sbag7
(g8
g9
NtRp92
(dp93
g12
g13
sg14
S'STIXSizeFourSym'
p94
sg16
I700
sg17
g13
sg18
g13
sg19
S'/usr/share/matplotlib/mpl-data/fonts/ttf/STIXSizFourSymBol.ttf'
p95
sg21
g22
sbag7
(g8
g9
NtRp96
(dp97
g12
g29
sg14
S'STIXGeneral'
p98
sg16
I400
sg17
g13
sg18
g13
sg19
S'/usr/share/matplotlib/mpl-data/fonts/ttf/STIXGeneralItalic.ttf'
p99
sg21
g22
sbag7
(g8
g9
NtRp100
(dp101
g12
g13
sg14
S'cmmi10'
p102
sg16
I400
sg17
g13
sg18
g13
sg19
S'/usr/share/matplotlib/mpl-data/fonts/ttf/cmmi10.ttf'
p103
sg21
g22
sbag7
(g8
g9
NtRp104
(dp105
g12
g13
sg14
S'STIXNonUnicode'
p106
sg16
I700
sg17
g13
sg18
g13
sg19
S'/usr/share/matplotlib/mpl-data/fonts/ttf/STIXNonUniBol.ttf'
p107
sg21
g22
sbag7
(g8
g9
NtRp108
(dp109
g12
g29
sg14
S'STIXGeneral'
p110
sg16
I700
sg17
g13
sg18
g13
sg19
S'/usr/share/matplotlib/mpl-data/fonts/ttf/STIXGeneralBolIta.ttf'
p111
sg21
g22
sbag7
(g8
g9
NtRp112
(dp113
g12
g13
sg14
S'STIXSizeFourSym'
p114
sg16
I400
sg17
g13
sg18
g13
sg19
S'/usr/share/matplotlib/mpl-data/fonts/ttf/STIXSizFourSymReg.ttf'
p115
sg21
g22
sbag7
(g8
g9
NtRp116
(dp117
g12
g13
sg14
S'KacstTitle'
p118
sg16
I400
sg17
g13
sg18
g13
sg19
S'/usr/share/fonts/truetype/kacst/KacstTitle.ttf'
p119
sg21
g22
sbag7
(g8
g9
NtRp120
(dp121
g12
S'oblique'
p122
sg14
S'Tlwg Typo'
p123
sg16
I400
sg17
g13
sg18
g13
sg19
S'/usr/share/fonts/truetype/tlwg/TlwgTypo-Oblique.ttf'
p124
sg21
g22
sbag7
(g8
g9
NtRp125
(dp126
g12
g13
sg14
S'Mallige'
p127
sg16
I700
sg17
g13
sg18
g13
sg19
S'/usr/share/fonts/truetype/ttf-indic-fonts-core/Malige-b.ttf'
p128
sg21
g22
sbag7
(g8
g9
NtRp129
(dp130
g12
g13
sg14
S'FZLiShu-S01'
p131
sg16
I400
sg17
g13
sg18
g13
sg19
S'/usr/share/fonts/wps-office/FZLSK.TTF'
p132
sg21
g22
sbag7
(g8
g9
NtRp133
(dp134
g12
g13
sg14
S'Umpush'
p135
sg16
I400
sg17
g13
sg18
g13
sg19
S'/usr/share/fonts/truetype/tlwg/Umpush.ttf'
p136
sg21
g22
sbag7
(g8
g9
NtRp137
(dp138
g12
g13
sg14
S'Garuda'
p139
sg16
I700
sg17
g13
sg18
g13
sg19
S'/usr/share/fonts/truetype/tlwg/Garuda-Bold.ttf'
p140
sg21
g22
sbag7
(g8
g9
NtRp141
(dp142
g12
g13
sg14
S'FZKai-Z03'
p143
sg16
I400
sg17
g13
sg18
g13
sg19
S'/usr/share/fonts/wps-office/FZKTK.TTF'
p144
sg21
g22
sbag7
(g8
g9
NtRp145
(dp146
g12
g122
sg14
S'Tlwg Typist'
p147
sg16
I700
sg17
g13
sg18
g13
sg19
S'/usr/share/fonts/truetype/tlwg/TlwgTypist-BoldOblique.ttf'
p148
sg21
g22
sbag7
(g8
g9
NtRp149
(dp150
g12
g13
sg14
S'FreeSerif'
p151
sg16
I400
sg17
g13
sg18
g13
sg19
S'/usr/share/fonts/truetype/freefont/FreeSerif.ttf'
p152
sg21
g22
sbag7
(g8
g9
NtRp153
(dp154
g12
g13
sg14
S'KacstScreen'
p155
sg16
I400
sg17
g13
sg18
g13
sg19
S'/usr/share/fonts/truetype/kacst/KacstScreen.ttf'
p156
sg21
g22
sbag7
(g8
g9
NtRp157
(dp158
g12
g13
sg14
S'DejaVu Sans'
p159
sg16
I400
sg17
S'condensed'
p160
sg18
g13
sg19
S'/usr/share/fonts/truetype/ttf-dejavu/DejaVuSansCondensed.ttf'
p161
sg21
g22
sbag7
(g8
g9
NtRp162
(dp163
g12
g122
sg14
S'Loma'
p164
sg16
I400
sg17
g13
sg18
g13
sg19
S'/usr/share/fonts/truetype/tlwg/Loma-Oblique.ttf'
p165
sg21
g22
sbag7
(g8
g9
NtRp166
(dp167
g12
g122
sg14
S'Norasi'
p168
sg16
I400
sg17
g13
sg18
g13
sg19
S'/usr/share/fonts/truetype/tlwg/Norasi-Oblique.ttf'
p169
sg21
g22
sbag7
(g8
g9
NtRp170
(dp171
g12
g13
sg14
S'Caviar Dreams'
p172
sg16
I400
sg17
g13
sg18
g13
sg19
S'/usr/share/fonts/TTF/conky/CaviarDreams.ttf'
p173
sg21
g22
sbag7
(g8
g9
NtRp174
(dp175
g12
g29
sg14
S'Gentium Basic'
p176
sg16
I400
sg17
g13
sg18
g13
sg19
S'/usr/share/fonts/truetype/gentium-basic/GenBasI.ttf'
p177
sg21
g22
sbag7
(g8
g9
NtRp178
(dp179
g12
g13
sg14
S'FZXingKai-S04'
p180
sg16
I400
sg17
g13
sg18
g13
sg19
S'/usr/share/fonts/wps-office/FZXKK.TTF'
p181
sg21
g22
sbag7
(g8
g9
NtRp182
(dp183
g12
g13
sg14
S'DejaVu Sans Mono'
p184
sg16
I400
sg17
g13
sg18
g13
sg19
S'/usr/share/fonts/truetype/ttf-dejavu/DejaVuSansMono.ttf'
p185
sg21
g22
sbag7
(g8
g9
NtRp186
(dp187
g12
g13
sg14
S'Lohit Punjabi'
p188
sg16
I400
sg17
g13
sg18
g13
sg19
S'/usr/share/fonts/truetype/ttf-punjabi-fonts/lohit_pa.ttf'
p189
sg21
g22
sbag7
(g8
g9
NtRp190
(dp191
g12
g13
sg14
S'Meera'
p192
sg16
I400
sg17
g13
sg18
g13
sg19
S'/usr/share/fonts/truetype/ttf-indic-fonts-core/Meera_04.ttf'
p193
sg21
g22
sbag7
(g8
g9
NtRp194
(dp195
g12
g29
sg14
S'Gentium Book Basic'
p196
sg16
I700
sg17
g13
sg18
g13
sg19
S'/usr/share/fonts/truetype/gentium-basic/GenBkBasBI.ttf'
p197
sg21
g22
sbag7
(g8
g9
NtRp198
(dp199
g12
g13
sg14
S'TakaoPGothic'
p200
sg16
I400
sg17
g13
sg18
g13
sg19
S'/usr/share/fonts/truetype/fonts-japanese-gothic.ttf'
p201
sg21
g22
sbag7
(g8
g9
NtRp202
(dp203
g12
g13
sg14
S'Gentium Book Basic'
p204
sg16
I400
sg17
g13
sg18
g13
sg19
S'/usr/share/fonts/truetype/gentium-basic/GenBkBasR.ttf'
p205
sg21
g22
sbag7
(g8
g9
NtRp206
(dp207
g12
g122
sg14
S'Umpush'
p208
sg16
I200
sg17
g13
sg18
g13
sg19
S'/usr/share/fonts/truetype/tlwg/Umpush-LightOblique.ttf'
p209
sg21
g22
sbag7
(g8
g9
NtRp210
(dp211
g12
g13
sg14
S'FreeSerif'
p212
sg16
I700
sg17
g13
sg18
g13
sg19
S'/usr/share/fonts/truetype/freefont/FreeSerifBold.ttf'
p213
sg21
g22
sbag7
(g8
g9
NtRp214
(dp215
g12
g122
sg14
S'FreeMono'
p216
sg16
I700
sg17
g13
sg18
g13
sg19
S'/usr/share/fonts/truetype/freefont/FreeMonoBoldOblique.ttf'
p217
sg21
g22
sbag7
(g8
g9
NtRp218
(dp219
g12
g13
sg14
S'Tlwg Typo'
p220
sg16
I400
sg17
g13
sg18
g13
sg19
S'/usr/share/fonts/truetype/tlwg/TlwgTypo.ttf'
p221
sg21
g22
sbag7
(g8
g9
NtRp222
(dp223
g12
g13
sg14
S'MT Extra'
p224
sg16
I400
sg17
g13
sg18
g13
sg19
S'/usr/share/fonts/wps-office/mtextra.ttf'
p225
sg21
g22
sbag7
(g8
g9
NtRp226
(dp227
g12
g13
sg14
S'Gentium'
p228
sg16
I400
sg17
g13
sg18
g13
sg19
S'/usr/share/fonts/truetype/gentium/GenR102.ttf'
p229
sg21
g22
sbag7
(g8
g9
NtRp230
(dp231
g12
g13
sg14
S'DejaVu Serif'
p232
sg16
I400
sg17
g13
sg18
g13
sg19
S'/usr/share/fonts/truetype/ttf-dejavu/DejaVuSerif.ttf'
p233
sg21
g22
sbag7
(g8
g9
NtRp234
(dp235
g12
g13
sg14
S'Liberation Sans Narrow'
p236
sg16
I700
sg17
g160
sg18
g13
sg19
S'/usr/share/fonts/truetype/liberation/LiberationSansNarrow-Bold.ttf'
p237
sg21
g22
sbag7
(g8
g9
NtRp238
(dp239
g12
g122
sg14
S'FreeSans'
p240
sg16
I400
sg17
g13
sg18
g13
sg19
S'/usr/share/fonts/truetype/freefont/FreeSansOblique.ttf'
p241
sg21
g22
sbag7
(g8
g9
NtRp242
(dp243
g12
g13
sg14
S'Gentium Basic'
p244
sg16
I700
sg17
g13
sg18
g13
sg19
S'/usr/share/fonts/truetype/gentium-basic/GenBasB.ttf'
p245
sg21
g22
sbag7
(g8
g9
NtRp246
(dp247
g12
g13
sg14
S'Liberation Mono'
p248
sg16
I400
sg17
g13
sg18
g13
sg19
S'/usr/share/fonts/truetype/liberation/LiberationMono-Regular.ttf'
p249
sg21
g22
sbag7
(g8
g9
NtRp250
(dp251
g12
g13
sg14
S'Liberation Sans'
p252
sg16
I700
sg17
g13
sg18
g13
sg19
S'/usr/share/fonts/truetype/liberation/LiberationSans-Bold.ttf'
p253
sg21
g22
sbag7
(g8
g9
NtRp254
(dp255
g12
g13
sg14
S'Lohit Hindi'
p256
sg16
I400
sg17
g13
sg18
g13
sg19
S'/usr/share/fonts/truetype/ttf-indic-fonts-core/lohit_hi.ttf'
p257
sg21
g22
sbag7
(g8
g9
NtRp258
(dp259
g12
g122
sg14
S'DejaVu Sans'
p260
sg16
I400
sg17
g13
sg18
g13
sg19
S'/usr/share/fonts/truetype/ttf-dejavu/DejaVuSans-Oblique.ttf'
p261
sg21
g22
sbag7
(g8
g9
NtRp262
(dp263
g12
g13
sg14
S'FZChaoCuHei-M10'
p264
sg16
I400
sg17
g13
sg18
g13
sg19
S'/usr/share/fonts/wps-office/FZCCHK.TTF'
p265
sg21
g22
sbag7
(g8
g9
NtRp266
(dp267
g12
g13
sg14
S'eufm10'
p268
sg16
I400
sg17
g13
sg18
g13
sg19
S'/usr/share/fonts/truetype/ttf-lyx/eufm10.ttf'
p269
sg21
g22
sbag7
(g8
g9
NtRp270
(dp271
g12
g13
sg14
S'Ubuntu'
p272
sg16
I400
sg17
g13
sg18
g13
sg19
S'/usr/share/fonts/truetype/ubuntu-font-family/Ubuntu-R.ttf'
p273
sg21
g22
sbag7
(g8
g9
NtRp274
(dp275
g12
g13
sg14
S'Gentium Book Basic'
p276
sg16
I700
sg17
g13
sg18
g13
sg19
S'/usr/share/fonts/truetype/gentium-basic/GenBkBasB.ttf'
p277
sg21
g22
sbag7
(g8
g9
NtRp278
(dp279
g12
g13
sg14
S'Garuda'
p280
sg16
I400
sg17
g13
sg18
g13
sg19
S'/usr/share/fonts/truetype/tlwg/Garuda.ttf'
p281
sg21
g22
sbag7
(g8
g9
NtRp282
(dp283
g12
g122
sg14
S'DejaVu Sans'
p284
sg16
I700
sg17
g13
sg18
g13
sg19
S'/usr/share/fonts/truetype/ttf-dejavu/DejaVuSans-BoldOblique.ttf'
p285
sg21
g22
sbag7
(g8
g9
NtRp286
(dp287
g12
g13
sg14
S'Tlwg Typist'
p288
sg16
I400
sg17
g13
sg18
g13
sg19
S'/usr/share/fonts/truetype/tlwg/TlwgTypist.ttf'
p289
sg21
g22
sbag7
(g8
g9
NtRp290
(dp291
g12
g13
sg14
S'NanumGothic'
p292
sg16
I400
sg17
g13
sg18
g13
sg19
S'/usr/share/fonts/truetype/nanum/NanumGothic.ttf'
p293
sg21
g22
sbag7
(g8
g9
NtRp294
(dp295
g12
g13
sg14
S'wasy10'
p296
sg16
I400
sg17
g13
sg18
g13
sg19
S'/usr/share/fonts/truetype/ttf-lyx/wasy10.ttf'
p297
sg21
g22
sbag7
(g8
g9
NtRp298
(dp299
g12
g122
sg14
S'DejaVu Sans'
p300
sg16
I700
sg17
g160
sg18
g13
sg19
S'/usr/share/fonts/truetype/ttf-dejavu/DejaVuSansCondensed-BoldOblique.ttf'
p301
sg21
g22
sbag7
(g8
g9
NtRp302
(dp303
g12
g13
sg14
S'DejaVu Sans'
p304
sg16
I700
sg17
g160
sg18
g13
sg19
S'/usr/share/fonts/truetype/ttf-dejavu/DejaVuSansCondensed-Bold.ttf'
p305
sg21
g22
sbag7
(g8
g9
NtRp306
(dp307
g12
g13
sg14
S'Gentium Basic'
p308
sg16
I400
sg17
g13
sg18
g13
sg19
S'/usr/share/fonts/truetype/gentium-basic/GenBasR.ttf'
p309
sg21
g22
sbag7
(g8
g9
NtRp310
(dp311
g12
g13
sg14
S'msbm10'
p312
sg16
I400
sg17
g13
sg18
g13
sg19
S'/usr/share/fonts/truetype/ttf-lyx/msbm10.ttf'
p313
sg21
g22
sbag7
(g8
g9
NtRp314
(dp315
g12
g13
sg14
S'TlwgMono'
p316
sg16
I700
sg17
g13
sg18
g13
sg19
S'/usr/share/fonts/truetype/tlwg/TlwgMono-Bold.ttf'
p317
sg21
g22
sbag7
(g8
g9
NtRp318
(dp319
g12
g29
sg14
S'Liberation Mono'
p320
sg16
I400
sg17
g13
sg18
g13
sg19
S'/usr/share/fonts/truetype/liberation/LiberationMono-Italic.ttf'
p321
sg21
g22
sbag7
(g8
g9
NtRp322
(dp323
g12
g13
sg14
S'Caviar Dreams'
p324
sg16
I700
sg17
g13
sg18
g13
sg19
S'/usr/share/fonts/TTF/conky/Caviar Dreams Bold.ttf'
p325
sg21
g22
sbag7
(g8
g9
NtRp326
(dp327
g12
g29
sg14
S'Liberation Serif'
p328
sg16
I700
sg17
g13
sg18
g13
sg19
S'/usr/share/fonts/truetype/liberation/LiberationSerif-BoldItalic.ttf'
p329
sg21
g22
sbag7
(g8
g9
NtRp330
(dp331
g12
g13
sg14
S'DejaVu Sans'
p332
sg16
I400
sg17
g13
sg18
g13
sg19
S'/usr/share/fonts/truetype/ttf-dejavu/DejaVuSans.ttf'
p333
sg21
g22
sbag7
(g8
g9
NtRp334
(dp335
g12
g13
sg14
S'Liberation Serif'
p336
sg16
I700
sg17
g13
sg18
g13
sg19
S'/usr/share/fonts/truetype/liberation/LiberationSerif-Bold.ttf'
p337
sg21
g22
sbag7
(g8
g9
NtRp338
(dp339
g12
g13
sg14
S'KacstOne'
p340
sg16
I700
sg17
g13
sg18
g13
sg19
S'/usr/share/fonts/truetype/kacst-one/KacstOne-Bold.ttf'
p341
sg21
g22
sbag7
(g8
g9
NtRp342
(dp343
g12
g13
sg14
S'NanumMyeongjo'
p344
sg16
I700
sg17
g13
sg18
g13
sg19
S'/usr/share/fonts/truetype/nanum/NanumMyeongjoBold.ttf'
p345
sg21
g22
sbag7
(g8
g9
NtRp346
(dp347
g12
g13
sg14
S'Waree'
p348
sg16
I700
sg17
g13
sg18
g13
sg19
S'/usr/share/fonts/truetype/tlwg/Waree-Bold.ttf'
p349
sg21
g22
sbag7
(g8
g9
NtRp350
(dp351
g12
g13
sg14
S'FZXiHeiI-Z08'
p352
sg16
I400
sg17
g13
sg18
g13
sg19
S'/usr/share/fonts/wps-office/FZXH1K.TTF'
p353
sg21
g22
sbag7
(g8
g9
NtRp354
(dp355
g12
g13
sg14
S'Phetsarath OT'
p356
sg16
I400
sg17
g13
sg18
g13
sg19
S'/usr/share/fonts/truetype/lao/Phetsarath_OT.ttf'
p357
sg21
g22
sbag7
(g8
g9
NtRp358
(dp359
g12
g122
sg14
S'DejaVu Sans'
p360
sg16
I400
sg17
g160
sg18
g13
sg19
S'/usr/share/fonts/truetype/ttf-dejavu/DejaVuSansCondensed-Oblique.ttf'
p361
sg21
g22
sbag7
(g8
g9
NtRp362
(dp363
g12
g13
sg14
S'FZHei-B01'
p364
sg16
I400
sg17
g13
sg18
g13
sg19
S'/usr/share/fonts/wps-office/FZHTK.TTF'
p365
sg21
g22
sbag7
(g8
g9
NtRp366
(dp367
g12
g13
sg14
S'ori1Uni'
p368
sg16
I500
sg17
g13
sg18
g13
sg19
S'/usr/share/fonts/truetype/ttf-indic-fonts-core/utkal.ttf'
p369
sg21
g22
sbag7
(g8
g9
NtRp370
(dp371
g12
g13
sg14
S'KacstQurn'
p372
sg16
I400
sg17
g13
sg18
g13
sg19
S'/usr/share/fonts/truetype/kacst/KacstQurn.ttf'
p373
sg21
g22
sbag7
(g8
g9
NtRp374
(dp375
g12
g13
sg14
S'Mukti Narrow'
p376
sg16
I400
sg17
g13
sg18
g13
sg19
S'/usr/share/fonts/truetype/ttf-indic-fonts-core/MuktiNarrow.ttf'
p377
sg21
g22
sbag7
(g8
g9
NtRp378
(dp379
g12
g13
sg14
S'TakaoPGothic'
p380
sg16
I400
sg17
g13
sg18
g13
sg19
S'/usr/share/fonts/truetype/takao-gothic/TakaoPGothic.ttf'
p381
sg21
g22
sbag7
(g8
g9
NtRp382
(dp383
g12
g29
sg14
S'DejaVu Serif'
p384
sg16
I700
sg17
g13
sg18
g13
sg19
S'/usr/share/fonts/truetype/ttf-dejavu/DejaVuSerif-BoldItalic.ttf'
p385
sg21
g22
sbag7
(g8
g9
NtRp386
(dp387
g12
g29
sg14
S'rsfs10'
p388
sg16
I400
sg17
g13
sg18
g13
sg19
S'/usr/share/fonts/truetype/ttf-lyx/rsfs10.ttf'
p389
sg21
g22
sbag7
(g8
g9
NtRp390
(dp391
g12
g13
sg14
S'mry_KacstQurn'
p392
sg16
I400
sg17
g13
sg18
g13
sg19
S'/usr/share/fonts/truetype/kacst/mry_KacstQurn.ttf'
p393
sg21
g22
sbag7
(g8
g9
NtRp394
(dp395
g12
g13
sg14
S'Kedage'
p396
sg16
I700
sg17
g13
sg18
g13
sg19
S'/usr/share/fonts/truetype/ttf-indic-fonts-core/Kedage-b.ttf'
p397
sg21
g22
sbag7
(g8
g9
NtRp398
(dp399
g12
g13
sg14
S'DejaVu Serif'
p400
sg16
I700
sg17
g13
sg18
g13
sg19
S'/usr/share/fonts/truetype/ttf-dejavu/DejaVuSerif-Bold.ttf'
p401
sg21
g22
sbag7
(g8
g9
NtRp402
(dp403
g12
g13
sg14
S'Ubuntu Mono'
p404
sg16
I400
sg17
g13
sg18
g13
sg19
S'/usr/share/fonts/truetype/ubuntu-font-family/UbuntuMono-R.ttf'
p405
sg21
g22
sbag7
(g8
g9
NtRp406
(dp407
g12
g13
sg14
S'Norasi'
p408
sg16
I700
sg17
g13
sg18
g13
sg19
S'/usr/share/fonts/truetype/tlwg/Norasi-Bold.ttf'
p409
sg21
g22
sbag7
(g8
g9
NtRp410
(dp411
g12
g29
sg14
S'Norasi'
p412
sg16
I700
sg17
g13
sg18
g13
sg19
S'/usr/share/fonts/truetype/tlwg/Norasi-BoldItalic.ttf'
p413
sg21
g22
sbag7
(g8
g9
NtRp414
(dp415
g12
g13
sg14
S'Umpush'
p416
sg16
I700
sg17
g13
sg18
g13
sg19
S'/usr/share/fonts/truetype/tlwg/Umpush-Bold.ttf'
p417
sg21
g22
sbag7
(g8
g9
NtRp418
(dp419
g12
g122
sg14
S'Kinnari'
p420
sg16
I700
sg17
g13
sg18
g13
sg19
S'/usr/share/fonts/truetype/tlwg/Kinnari-BoldOblique.ttf'
p421
sg21
g22
sbag7
(g8
g9
NtRp422
(dp423
g12
g29
sg14
S'Liberation Sans'
p424
sg16
I700
sg17
g13
sg18
g13
sg19
S'/usr/share/fonts/truetype/liberation/LiberationSans-BoldItalic.ttf'
p425
sg21
g22
sbag7
(g8
g9
NtRp426
(dp427
g12
g13
sg14
S'FreeMono'
p428
sg16
I400
sg17
g13
sg18
g13
sg19
S'/usr/share/fonts/truetype/freefont/FreeMono.ttf'
p429
sg21
g22
sbag7
(g8
g9
NtRp430
(dp431
g12
g13
sg14
S'Mallige'
p432
sg16
I400
sg17
g13
sg18
g13
sg19
S'/usr/share/fonts/truetype/ttf-indic-fonts-core/Malige-n.ttf'
p433
sg21
g22
sbag7
(g8
g9
NtRp434
(dp435
g12
g13
sg14
S'KacstNaskh'
p436
sg16
I400
sg17
g13
sg18
g13
sg19
S'/usr/share/fonts/truetype/kacst/KacstNaskh.ttf'
p437
sg21
g22
sbag7
(g8
g9
NtRp438
(dp439
g12
g13
sg14
S'Rekha'
p440
sg16
I400
sg17
g13
sg18
g13
sg19
S'/usr/share/fonts/truetype/ttf-indic-fonts-core/Rekha.ttf'
p441
sg21
g22
sbag7
(g8
g9
NtRp442
(dp443
g12
g29
sg14
S'Liberation Sans Narrow'
p444
sg16
I700
sg17
g160
sg18
g13
sg19
S'/usr/share/fonts/truetype/liberation/LiberationSansNarrow-BoldItalic.ttf'
p445
sg21
g22
sbag7
(g8
g9
NtRp446
(dp447
g12
g122
sg14
S'Norasi'
p448
sg16
I700
sg17
g13
sg18
g13
sg19
S'/usr/share/fonts/truetype/tlwg/Norasi-BoldOblique.ttf'
p449
sg21
g22
sbag7
(g8
g9
NtRp450
(dp451
g12
g29
sg14
S'Kinnari'
p452
sg16
I700
sg17
g13
sg18
g13
sg19
S'/usr/share/fonts/truetype/tlwg/Kinnari-BoldItalic.ttf'
p453
sg21
g22
sbag7
(g8
g9
NtRp454
(dp455
g12
g13
sg14
S'Sawasdee'
p456
sg16
I400
sg17
g13
sg18
g13
sg19
S'/usr/share/fonts/truetype/tlwg/Sawasdee.ttf'
p457
sg21
g22
sbag7
(g8
g9
NtRp458
(dp459
g12
g13
sg14
S'KacstOne'
p460
sg16
I400
sg17
g13
sg18
g13
sg19
S'/usr/share/fonts/truetype/kacst-one/KacstOne.ttf'
p461
sg21
g22
sbag7
(g8
g9
NtRp462
(dp463
g12
g13
sg14
S'FreeSans'
p464
sg16
I700
sg17
g13
sg18
g13
sg19
S'/usr/share/fonts/truetype/freefont/FreeSansBold.ttf'
p465
sg21
g22
sbag7
(g8
g9
NtRp466
(dp467
g12
g13
sg14
S'Liberation Mono'
p468
sg16
I700
sg17
g13
sg18
g13
sg19
S'/usr/share/fonts/truetype/liberation/LiberationMono-Bold.ttf'
p469
sg21
g22
sbag7
(g8
g9
NtRp470
(dp471
g12
g13
sg14
S'Lohit Bengali'
p472
sg16
I400
sg17
g13
sg18
g13
sg19
S'/usr/share/fonts/truetype/ttf-indic-fonts-core/lohit_bn.ttf'
p473
sg21
g22
sbag7
(g8
g9
NtRp474
(dp475
g12
g29
sg14
S'Ubuntu Mono'
p476
sg16
I400
sg17
g13
sg18
g13
sg19
S'/usr/share/fonts/truetype/ubuntu-font-family/UbuntuMono-RI.ttf'
p477
sg21
g22
sbag7
(g8
g9
NtRp478
(dp479
g12
g13
sg14
S'FZSongS-Extended'
p480
sg16
I400
sg17
g13
sg18
g13
sg19
S'/usr/share/fonts/wps-office/FZSongS_20100603.TTF'
p481
sg21
g22
sbag7
(g8
g9
NtRp482
(dp483
g12
g13
sg14
S'Liberation Serif'
p484
sg16
I400
sg17
g13
sg18
g13
sg19
S'/usr/share/fonts/truetype/liberation/LiberationSerif-Regular.ttf'
p485
sg21
g22
sbag7
(g8
g9
NtRp486
(dp487
g12
g122
sg14
S'DejaVu Sans Mono'
p488
sg16
I700
sg17
g13
sg18
g13
sg19
S'/usr/share/fonts/truetype/ttf-dejavu/DejaVuSansMono-BoldOblique.ttf'
p489
sg21
g22
sbag7
(g8
g9
NtRp490
(dp491
g12
g13
sg14
S'Purisa'
p492
sg16
I700
sg17
g13
sg18
g13
sg19
S'/usr/share/fonts/truetype/tlwg/Purisa-Bold.ttf'
p493
sg21
g22
sbag7
(g8
g9
NtRp494
(dp495
g12
g13
sg14
S'FreeMono'
p496
sg16
I700
sg17
g13
sg18
g13
sg19
S'/usr/share/fonts/truetype/freefont/FreeMonoBold.ttf'
p497
sg21
g22
sbag7
(g8
g9
NtRp498
(dp499
g12
g13
sg14
S'DejaVu Sans'
p500
sg16
I700
sg17
g13
sg18
g13
sg19
S'/usr/share/fonts/truetype/ttf-dejavu/DejaVuSans-Bold.ttf'
p501
sg21
g22
sbag7
(g8
g9
NtRp502
(dp503
g12
g13
sg14
S'Tlwg Typist'
p504
sg16
I700
sg17
g13
sg18
g13
sg19
S'/usr/share/fonts/truetype/tlwg/TlwgTypist-Bold.ttf'
p505
sg21
g22
sbag7
(g8
g9
NtRp506
(dp507
g12
g13
sg14
S'DejaVu Sans'
p508
sg16
I200
sg17
g13
sg18
g13
sg19
S'/usr/share/fonts/truetype/ttf-dejavu/DejaVuSans-ExtraLight.ttf'
p509
sg21
g22
sbag7
(g8
g9
NtRp510
(dp511
g12
g13
sg14
S'KacstBook'
p512
sg16
I400
sg17
g13
sg18
g13
sg19
S'/usr/share/fonts/truetype/kacst/KacstBook.ttf'
p513
sg21
g22
sbag7
(g8
g9
NtRp514
(dp515
g12
g13
sg14
S'FZShuSong-Z01'
p516
sg16
I400
sg17
g13
sg18
g13
sg19
S'/usr/share/fonts/wps-office/FZSSK.TTF'
p517
sg21
g22
sbag7
(g8
g9
NtRp518
(dp519
g12
g13
sg14
S'KacstFarsi'
p520
sg16
I400
sg17
g13
sg18
g13
sg19
S'/usr/share/fonts/truetype/kacst/KacstFarsi.ttf'
p521
sg21
g22
sbag7
(g8
g9
NtRp522
(dp523
g12
g13
sg14
S'KacstPoster'
p524
sg16
I400
sg17
g13
sg18
g13
sg19
S'/usr/share/fonts/truetype/kacst/KacstPoster.ttf'
p525
sg21
g22
sbag7
(g8
g9
NtRp526
(dp527
g12
g13
sg14
S'Purisa'
p528
sg16
I400
sg17
g13
sg18
g13
sg19
S'/usr/share/fonts/truetype/tlwg/Purisa.ttf'
p529
sg21
g22
sbag7
(g8
g9
NtRp530
(dp531
g12
g13
sg14
S'FZWeiBei-S03'
p532
sg16
I400
sg17
g13
sg18
g13
sg19
S'/usr/share/fonts/wps-office/FZWBK.TTF'
p533
sg21
g22
sbag7
(g8
g9
NtRp534
(dp535
g12
g29
sg14
S'Ubuntu'
p536
sg16
I200
sg17
g13
sg18
g13
sg19
S'/usr/share/fonts/truetype/ubuntu-font-family/Ubuntu-LI.ttf'
p537
sg21
g22
sbag7
(g8
g9
NtRp538
(dp539
g12
g13
sg14
S'Pothana2000'
p540
sg16
I400
sg17
g13
sg18
g13
sg19
S'/usr/share/fonts/truetype/ttf-indic-fonts-core/Pothana2000.ttf'
p541
sg21
g22
sbag7
(g8
g9
NtRp542
(dp543
g12
g122
sg14
S'Umpush'
p544
sg16
I400
sg17
g13
sg18
g13
sg19
S'/usr/share/fonts/truetype/tlwg/Umpush-Oblique.ttf'
p545
sg21
g22
sbag7
(g8
g9
NtRp546
(dp547
g12
g13
sg14
S'NanumGothic'
p548
sg16
I700
sg17
g13
sg18
g13
sg19
S'/usr/share/fonts/truetype/nanum/NanumGothicBold.ttf'
p549
sg21
g22
sbag7
(g8
g9
NtRp550
(dp551
g12
g29
sg14
S'Liberation Mono'
p552
sg16
I700
sg17
g13
sg18
g13
sg19
S'/usr/share/fonts/truetype/liberation/LiberationMono-BoldItalic.ttf'
p553
sg21
g22
sbag7
(g8
g9
NtRp554
(dp555
g12
g122
sg14
S'Purisa'
p556
sg16
I700
sg17
g13
sg18
g13
sg19
S'/usr/share/fonts/truetype/tlwg/Purisa-BoldOblique.ttf'
p557
sg21
g22
sbag7
(g8
g9
NtRp558
(dp559
g12
g122
sg14
S'Loma'
p560
sg16
I700
sg17
g13
sg18
g13
sg19
S'/usr/share/fonts/truetype/tlwg/Loma-BoldOblique.ttf'
p561
sg21
g22
sbag7
(g8
g9
NtRp562
(dp563
g12
g13
sg14
S'TlwgTypewriter'
p564
sg16
I400
sg17
g13
sg18
g13
sg19
S'/usr/share/fonts/truetype/tlwg/TlwgTypewriter.ttf'
p565
sg21
g22
sbag7
(g8
g9
NtRp566
(dp567
g12
g29
sg14
S'DejaVu Serif'
p568
sg16
I700
sg17
g160
sg18
g13
sg19
S'/usr/share/fonts/truetype/ttf-dejavu/DejaVuSerifCondensed-BoldItalic.ttf'
p569
sg21
g22
sbag7
(g8
g9
NtRp570
(dp571
g12
g13
sg14
S'Ubuntu Mono'
p572
sg16
I700
sg17
g13
sg18
g13
sg19
S'/usr/share/fonts/truetype/ubuntu-font-family/UbuntuMono-B.ttf'
p573
sg21
g22
sbag7
(g8
g9
NtRp574
(dp575
g12
g13
sg14
S'esint10'
p576
sg16
I400
sg17
g13
sg18
g13
sg19
S'/usr/share/fonts/truetype/ttf-lyx/esint10.ttf'
p577
sg21
g22
sbag7
(g8
g9
NtRp578
(dp579
g12
g13
sg14
S'OpenSymbol'
p580
sg16
I400
sg17
g13
sg18
g13
sg19
S'/usr/share/fonts/truetype/openoffice/opens___.ttf'
p581
sg21
g22
sbag7
(g8
g9
NtRp582
(dp583
g12
g122
sg14
S'TlwgMono'
p584
sg16
I400
sg17
g13
sg18
g13
sg19
S'/usr/share/fonts/truetype/tlwg/TlwgMono-Oblique.ttf'
p585
sg21
g22
sbag7
(g8
g9
NtRp586
(dp587
g12
g13
sg14
S'gargi'
p588
sg16
I400
sg17
g13
sg18
g13
sg19
S'/usr/share/fonts/truetype/ttf-indic-fonts-core/gargi.ttf'
p589
sg21
g22
sbag7
(g8
g9
NtRp590
(dp591
g12
g29
sg14
S'Norasi'
p592
sg16
I400
sg17
g13
sg18
g13
sg19
S'/usr/share/fonts/truetype/tlwg/Norasi-Italic.ttf'
p593
sg21
g22
sbag7
(g8
g9
NtRp594
(dp595
g12
g29
sg14
S'Ubuntu'
p596
sg16
I700
sg17
g13
sg18
g13
sg19
S'/usr/share/fonts/truetype/ubuntu-font-family/Ubuntu-BI.ttf'
p597
sg21
g22
sbag7
(g8
g9
NtRp598
(dp599
g12
g13
sg14
S'Khmer OS System'
p600
sg16
I400
sg17
g13
sg18
g13
sg19
S'/usr/share/fonts/truetype/ttf-khmeros-core/KhmerOSsys.ttf'
p601
sg21
g22
sbag7
(g8
g9
NtRp602
(dp603
g12
g122
sg14
S'Tlwg Typist'
p604
sg16
I400
sg17
g13
sg18
g13
sg19
S'/usr/share/fonts/truetype/tlwg/TlwgTypist-Oblique.ttf'
p605
sg21
g22
sbag7
(g8
g9
NtRp606
(dp607
g12
g13
sg14
S'Norasi'
p608
sg16
I400
sg17
g13
sg18
g13
sg19
S'/usr/share/fonts/truetype/tlwg/Norasi.ttf'
p609
sg21
g22
sbag7
(g8
g9
NtRp610
(dp611
g12
g29
sg14
S'DejaVu Serif'
p612
sg16
I400
sg17
g160
sg18
g13
sg19
S'/usr/share/fonts/truetype/ttf-dejavu/DejaVuSerifCondensed-Italic.ttf'
p613
sg21
g22
sbag7
(g8
g9
NtRp614
(dp615
g12
g29
sg14
S'GentiumAlt'
p616
sg16
I400
sg17
g13
sg18
g13
sg19
S'/usr/share/fonts/truetype/gentium/GenAI102.ttf'
p617
sg21
g22
sbag7
(g8
g9
NtRp618
(dp619
g12
g13
sg14
S'Mukti Narrow'
p620
sg16
I700
sg17
g13
sg18
g13
sg19
S'/usr/share/fonts/truetype/ttf-indic-fonts-core/MuktiNarrowBold.ttf'
p621
sg21
g22
sbag7
(g8
g9
NtRp622
(dp623
g12
g13
sg14
S'GentiumAlt'
p624
sg16
I400
sg17
g13
sg18
g13
sg19
S'/usr/share/fonts/truetype/gentium/GenAR102.ttf'
p625
sg21
g22
sbag7
(g8
g9
NtRp626
(dp627
g12
g29
sg14
S'Liberation Sans'
p628
sg16
I400
sg17
g13
sg18
g13
sg19
S'/usr/share/fonts/truetype/liberation/LiberationSans-Italic.ttf'
p629
sg21
g22
sbag7
(g8
g9
NtRp630
(dp631
g12
g122
sg14
S'Umpush'
p632
sg16
I700
sg17
g13
sg18
g13
sg19
S'/usr/share/fonts/truetype/tlwg/Umpush-BoldOblique.ttf'
p633
sg21
g22
sbag7
(g8
g9
NtRp634
(dp635
g12
g13
sg14
S'Ubuntu'
p636
sg16
I700
sg17
g13
sg18
g13
sg19
S'/usr/share/fonts/truetype/ubuntu-font-family/Ubuntu-B.ttf'
p637
sg21
g22
sbag7
(g8
g9
NtRp638
(dp639
g12
g122
sg14
S'FreeSans'
p640
sg16
I700
sg17
g13
sg18
g13
sg19
S'/usr/share/fonts/truetype/freefont/FreeSansBoldOblique.ttf'
p641
sg21
g22
sbag7
(g8
g9
NtRp642
(dp643
g12
g13
sg14
S'Tlwg Typo'
p644
sg16
I700
sg17
g13
sg18
g13
sg19
S'/usr/share/fonts/truetype/tlwg/TlwgTypo-Bold.ttf'
p645
sg21
g22
sbag7
(g8
g9
NtRp646
(dp647
g12
g29
sg14
S'Ubuntu'
p648
sg16
I400
sg17
g13
sg18
g13
sg19
S'/usr/share/fonts/truetype/ubuntu-font-family/Ubuntu-RI.ttf'
p649
sg21
g22
sbag7
(g8
g9
NtRp650
(dp651
g12
g122
sg14
S'Waree'
p652
sg16
I400
sg17
g13
sg18
g13
sg19
S'/usr/share/fonts/truetype/tlwg/Waree-Oblique.ttf'
p653
sg21
g22
sbag7
(g8
g9
NtRp654
(dp655
g12
g29
sg14
S'Liberation Serif'
p656
sg16
I400
sg17
g13
sg18
g13
sg19
S'/usr/share/fonts/truetype/liberation/LiberationSerif-Italic.ttf'
p657
sg21
g22
sbag7
(g8
g9
NtRp658
(dp659
g12
g13
sg14
S'TlwgTypewriter'
p660
sg16
I700
sg17
g13
sg18
g13
sg19
S'/usr/share/fonts/truetype/tlwg/TlwgTypewriter-Bold.ttf'
p661
sg21
g22
sbag7
(g8
g9
NtRp662
(dp663
g12
g122
sg14
S'Waree'
p664
sg16
I700
sg17
g13
sg18
g13
sg19
S'/usr/share/fonts/truetype/tlwg/Waree-BoldOblique.ttf'
p665
sg21
g22
sbag7
(g8
g9
NtRp666
(dp667
g12
g13
sg14
S'FreeSans'
p668
sg16
I400
sg17
g13
sg18
g13
sg19
S'/usr/share/fonts/truetype/freefont/FreeSans.ttf'
p669
sg21
g22
sbag7
(g8
g9
NtRp670
(dp671
g12
g122
sg14
S'Kinnari'
p672
sg16
I400
sg17
g13
sg18
g13
sg19
S'/usr/share/fonts/truetype/tlwg/Kinnari-Oblique.ttf'
p673
sg21
g22
sbag7
(g8
g9
NtRp674
(dp675
g12
g13
sg14
S'DejaVu Sans Mono'
p676
sg16
I700
sg17
g13
sg18
g13
sg19
S'/usr/share/fonts/truetype/ttf-dejavu/DejaVuSansMono-Bold.ttf'
p677
sg21
g22
sbag7
(g8
g9
NtRp678
(dp679
g12
g29
sg14
S'Gentium'
p680
sg16
I400
sg17
g13
sg18
g13
sg19
S'/usr/share/fonts/truetype/gentium/GenI102.ttf'
p681
sg21
g22
sbag7
(g8
g9
NtRp682
(dp683
g12
g29
sg14
S'FreeSerif'
p684
sg16
I700
sg17
g13
sg18
g13
sg19
S'/usr/share/fonts/truetype/freefont/FreeSerifBoldItalic.ttf'
p685
sg21
g22
sbag7
(g8
g9
NtRp686
(dp687
g12
g13
sg14
S'KacstArt'
p688
sg16
I400
sg17
g13
sg18
g13
sg19
S'/usr/share/fonts/truetype/kacst/KacstArt.ttf'
p689
sg21
g22
sbag7
(g8
g9
NtRp690
(dp691
g12
g13
sg14
S'Waree'
p692
sg16
I400
sg17
g13
sg18
g13
sg19
S'/usr/share/fonts/truetype/tlwg/Waree.ttf'
p693
sg21
g22
sbag7
(g8
g9
NtRp694
(dp695
g12
g13
sg14
S'Vemana2000'
p696
sg16
I400
sg17
g13
sg18
g13
sg19
S'/usr/share/fonts/truetype/ttf-indic-fonts-core/Vemana.ttf'
p697
sg21
g22
sbag7
(g8
g9
NtRp698
(dp699
g12
g13
sg14
S'FZXiaoBiaoSong-B05'
p700
sg16
I400
sg17
g13
sg18
g13
sg19
S'/usr/share/fonts/wps-office/FZXBSK.TTF'
p701
sg21
g22
sbag7
(g8
g9
NtRp702
(dp703
g12
g13
sg14
S'Umpush'
p704
sg16
I200
sg17
g13
sg18
g13
sg19
S'/usr/share/fonts/truetype/tlwg/Umpush-Light.ttf'
p705
sg21
g22
sbag7
(g8
g9
NtRp706
(dp707
g12
g13
sg14
S'Lohit Tamil'
p708
sg16
I400
sg17
g13
sg18
g13
sg19
S'/usr/share/fonts/truetype/ttf-indic-fonts-core/lohit_ta.ttf'
p709
sg21
g22
sbag7
(g8
g9
NtRp710
(dp711
g12
g13
sg14
S'Liberation Sans'
p712
sg16
I400
sg17
g13
sg18
g13
sg19
S'/usr/share/fonts/truetype/liberation/LiberationSans-Regular.ttf'
p713
sg21
g22
sbag7
(g8
g9
NtRp714
(dp715
g12
g13
sg14
S'Ubuntu Condensed'
p716
sg16
I400
sg17
g160
sg18
g13
sg19
S'/usr/share/fonts/truetype/ubuntu-font-family/Ubuntu-C.ttf'
p717
sg21
g22
sbag7
(g8
g9
NtRp718
(dp719
g12
g13
sg14
S'Kinnari'
p720
sg16
I400
sg17
g13
sg18
g13
sg19
S'/usr/share/fonts/truetype/tlwg/Kinnari.ttf'
p721
sg21
g22
sbag7
(g8
g9
NtRp722
(dp723
g12
g29
sg14
S'Gentium Basic'
p724
sg16
I700
sg17
g13
sg18
g13
sg19
S'/usr/share/fonts/truetype/gentium-basic/GenBasBI.ttf'
p725
sg21
g22
sbag7
(g8
g9
NtRp726
(dp727
g12
g29
sg14
S'Ubuntu Mono'
p728
sg16
I700
sg17
g13
sg18
g13
sg19
S'/usr/share/fonts/truetype/ubuntu-font-family/UbuntuMono-BI.ttf'
p729
sg21
g22
sbag7
(g8
g9
NtRp730
(dp731
g12
g13
sg14
S'DejaVu Serif'
p732
sg16
I700
sg17
g160
sg18
g13
sg19
S'/usr/share/fonts/truetype/ttf-dejavu/DejaVuSerifCondensed-Bold.ttf'
p733
sg21
g22
sbag7
(g8
g9
NtRp734
(dp735
g12
g13
sg14
S'FZYaoTi-M06'
p736
sg16
I400
sg17
g13
sg18
g13
sg19
S'/usr/share/fonts/wps-office/FZYTK.TTF'
p737
sg21
g22
sbag7
(g8
g9
NtRp738
(dp739
g12
g13
sg14
S'Rachana'
p740
sg16
I400
sg17
g13
sg18
g13
sg19
S'/usr/share/fonts/truetype/ttf-indic-fonts-core/Rachana_04.ttf'
p741
sg21
g22
sbag7
(g8
g9
NtRp742
(dp743
g12
g122
sg14
S'TlwgMono'
p744
sg16
I700
sg17
g13
sg18
g13
sg19
S'/usr/share/fonts/truetype/tlwg/TlwgMono-BoldOblique.ttf'
p745
sg21
g22
sbag7
(g8
g9
NtRp746
(dp747
g12
g29
sg14
S'Caviar Dreams'
p748
sg16
I700
sg17
g13
sg18
g13
sg19
S'/usr/share/fonts/TTF/conky/CaviarDreams_BoldItalic.ttf'
p749
sg21
g22
sbag7
(g8
g9
NtRp750
(dp751
g12
g29
sg14
S'Caviar Dreams'
p752
sg16
I400
sg17
g13
sg18
g13
sg19
S'/usr/share/fonts/TTF/conky/CaviarDreams_Italic.ttf'
p753
sg21
g22
sbag7
(g8
g9
NtRp754
(dp755
g12
g13
sg14
S'Kedage'
p756
sg16
I400
sg17
g13
sg18
g13
sg19
S'/usr/share/fonts/truetype/ttf-indic-fonts-core/Kedage-n.ttf'
p757
sg21
g22
sbag7
(g8
g9
NtRp758
(dp759
g12
g13
sg14
S'Kinnari'
p760
sg16
I700
sg17
g13
sg18
g13
sg19
S'/usr/share/fonts/truetype/tlwg/Kinnari-Bold.ttf'
p761
sg21
g22
sbag7
(g8
g9
NtRp762
(dp763
g12
g122
sg14
S'FreeMono'
p764
sg16
I400
sg17
g13
sg18
g13
sg19
S'/usr/share/fonts/truetype/freefont/FreeMonoOblique.ttf'
p765
sg21
g22
sbag7
(g8
g9
NtRp766
(dp767
g12
g13
sg14
S'TlwgMono'
p768
sg16
I400
sg17
g13
sg18
g13
sg19
S'/usr/share/fonts/truetype/tlwg/TlwgMono.ttf'
p769
sg21
g22
sbag7
(g8
g9
NtRp770
(dp771
g12
g122
sg14
S'TlwgTypewriter'
p772
sg16
I700
sg17
g13
sg18
g13
sg19
S'/usr/share/fonts/truetype/tlwg/TlwgTypewriter-BoldOblique.ttf'
p773
sg21
g22
sbag7
(g8
g9
NtRp774
(dp775
g12
g29
sg14
S'Gentium Book Basic'
p776
sg16
I400
sg17
g13
sg18
g13
sg19
S'/usr/share/fonts/truetype/gentium-basic/GenBkBasI.ttf'
p777
sg21
g22
sbag7
(g8
g9
NtRp778
(dp779
g12
g122
sg14
S'DejaVu Sans Mono'
p780
sg16
I400
sg17
g13
sg18
g13
sg19
S'/usr/share/fonts/truetype/ttf-dejavu/DejaVuSansMono-Oblique.ttf'
p781
sg21
g22
sbag7
(g8
g9
NtRp782
(dp783
g12
g13
sg14
S'Liberation Sans Narrow'
p784
sg16
I400
sg17
g160
sg18
g13
sg19
S'/usr/share/fonts/truetype/liberation/LiberationSansNarrow-Regular.ttf'
p785
sg21
g22
sbag7
(g8
g9
NtRp786
(dp787
g12
g13
sg14
S'FZFangSong-Z02'
p788
sg16
I400
sg17
g13
sg18
g13
sg19
S'/usr/share/fonts/wps-office/FZFSK.TTF'
p789
sg21
g22
sbag7
(g8
g9
NtRp790
(dp791
g12
g13
sg14
S'FZSongS-Extended(SIP)'
p792
sg16
I400
sg17
g13
sg18
g13
sg19
S'/usr/share/fonts/wps-office/FZSongS(SIP)_2010603.TTF'
p793
sg21
g22
sbag7
(g8
g9
NtRp794
(dp795
g12
g122
sg14
S'Purisa'
p796
sg16
I400
sg17
g13
sg18
g13
sg19
S'/usr/share/fonts/truetype/tlwg/Purisa-Oblique.ttf'
p797
sg21
g22
sbag7
(g8
g9
NtRp798
(dp799
g12
g29
sg14
S'Kinnari'
p800
sg16
I400
sg17
g13
sg18
g13
sg19
S'/usr/share/fonts/truetype/tlwg/Kinnari-Italic.ttf'
p801
sg21
g22
sbag7
(g8
g9
NtRp802
(dp803
g12
g122
sg14
S'Sawasdee'
p804
sg16
I700
sg17
g13
sg18
g13
sg19
S'/usr/share/fonts/truetype/tlwg/Sawasdee-BoldOblique.ttf'
p805
sg21
g22
sbag7
(g8
g9
NtRp806
(dp807
g12
g13
sg14
S'Sawasdee'
p808
sg16
I700
sg17
g13
sg18
g13
sg19
S'/usr/share/fonts/truetype/tlwg/Sawasdee-Bold.ttf'
p809
sg21
g22
sbag7
(g8
g9
NtRp810
(dp811
g12
g13
sg14
S'KacstDigital'
p812
sg16
I400
sg17
g13
sg18
g13
sg19
S'/usr/share/fonts/truetype/kacst/KacstDigital.ttf'
p813
sg21
g22
sbag7
(g8
g9
NtRp814
(dp815
g12
g13
sg14
S'DejaVu Serif'
p816
sg16
I400
sg17
g160
sg18
g13
sg19
S'/usr/share/fonts/truetype/ttf-dejavu/DejaVuSerifCondensed.ttf'
p817
sg21
g22
sbag7
(g8
g9
NtRp818
(dp819
g12
g13
sg14
S'Saab'
p820
sg16
I400
sg17
g13
sg18
g13
sg19
S'/usr/share/fonts/truetype/ttf-punjabi-fonts/Saab.ttf'
p821
sg21
g22
sbag7
(g8
g9
NtRp822
(dp823
g12
g13
sg14
S'KacstOffice'
p824
sg16
I400
sg17
g13
sg18
g13
sg19
S'/usr/share/fonts/truetype/kacst/KacstOffice.ttf'
p825
sg21
g22
sbag7
(g8
g9
NtRp826
(dp827
g12
g13
sg14
S'Lohit Gujarati'
p828
sg16
I400
sg17
g13
sg18
g13
sg19
S'/usr/share/fonts/truetype/ttf-indic-fonts-core/lohit_gu.ttf'
p829
sg21
g22
sbag7
(g8
g9
NtRp830
(dp831
g12
g122
sg14
S'Sawasdee'
p832
sg16
I400
sg17
g13
sg18
g13
sg19
S'/usr/share/fonts/truetype/tlwg/Sawasdee-Oblique.ttf'
p833
sg21
g22
sbag7
(g8
g9
NtRp834
(dp835
g12
g13
sg14
S'NanumMyeongjo'
p836
sg16
I400
sg17
g13
sg18
g13
sg19
S'/usr/share/fonts/truetype/nanum/NanumMyeongjo.ttf'
p837
sg21
g22
sbag7
(g8
g9
NtRp838
(dp839
g12
g13
sg14
S'Khmer OS'
p840
sg16
I400
sg17
g13
sg18
g13
sg19
S'/usr/share/fonts/truetype/ttf-khmeros-core/KhmerOS.ttf'
p841
sg21
g22
sbag7
(g8
g9
NtRp842
(dp843
g12
g13
sg14
S'Loma'
p844
sg16
I400
sg17
g13
sg18
g13
sg19
S'/usr/share/fonts/truetype/tlwg/Loma.ttf'
p845
sg21
g22
sbag7
(g8
g9
NtRp846
(dp847
g12
g122
sg14
S'Garuda'
p848
sg16
I400
sg17
g13
sg18
g13
sg19
S'/usr/share/fonts/truetype/tlwg/Garuda-Oblique.ttf'
p849
sg21
g22
sbag7
(g8
g9
NtRp850
(dp851
g12
g13
sg14
S'Loma'
p852
sg16
I700
sg17
g13
sg18
g13
sg19
S'/usr/share/fonts/truetype/tlwg/Loma-Bold.ttf'
p853
sg21
g22
sbag7
(g8
g9
NtRp854
(dp855
g12
g122
sg14
S'Garuda'
p856
sg16
I700
sg17
g13
sg18
g13
sg19
S'/usr/share/fonts/truetype/tlwg/Garuda-BoldOblique.ttf'
p857
sg21
g22
sbag7
(g8
g9
NtRp858
(dp859
g12
g13
sg14
S'KacstLetter'
p860
sg16
I400
sg17
g13
sg18
g13
sg19
S'/usr/share/fonts/truetype/kacst/KacstLetter.ttf'
p861
sg21
g22
sbag7
(g8
g9
NtRp862
(dp863
g12
g13
sg14
S'KacstPen'
p864
sg16
I400
sg17
g13
sg18
g13
sg19
S'/usr/share/fonts/truetype/kacst/KacstPen.ttf'
p865
sg21
g22
sbag7
(g8
g9
NtRp866
(dp867
g12
g122
sg14
S'Tlwg Typo'
p868
sg16
I700
sg17
g13
sg18
g13
sg19
S'/usr/share/fonts/truetype/tlwg/TlwgTypo-BoldOblique.ttf'
p869
sg21
g22
sbag7
(g8
g9
NtRp870
(dp871
g12
g13
sg14
S'msam10'
p872
sg16
I400
sg17
g13
sg18
g13
sg19
S'/usr/share/fonts/truetype/ttf-lyx/msam10.ttf'
p873
sg21
g22
sbag7
(g8
g9
NtRp874
(dp875
g12
g29
sg14
S'DejaVu Serif'
p876
sg16
I400
sg17
g13
sg18
g13
sg19
S'/usr/share/fonts/truetype/ttf-dejavu/DejaVuSerif-Italic.ttf'
p877
sg21
g22
sbag7
(g8
g9
NtRp878
(dp879
g12
g13
sg14
S'Untitled1'
p880
sg16
I400
sg17
g13
sg18
g13
sg19
S'/usr/share/fonts/truetype/freefont/Untitled1.ttf'
p881
sg21
g22
sbag7
(g8
g9
NtRp882
(dp883
g12
g29
sg14
S'FreeSerif'
p884
sg16
I400
sg17
g13
sg18
g13
sg19
S'/usr/share/fonts/truetype/freefont/FreeSerifItalic.ttf'
p885
sg21
g22
sbag7
(g8
g9
NtRp886
(dp887
g12
g13
sg14
S'KacstTitleL'
p888
sg16
I400
sg17
g13
sg18
g13
sg19
S'/usr/share/fonts/truetype/kacst/KacstTitleL.ttf'
p889
sg21
g22
sbag7
(g8
g9
NtRp890
(dp891
g12
g13
sg14
S'Ubuntu'
p892
sg16
I200
sg17
g13
sg18
g13
sg19
S'/usr/share/fonts/truetype/ubuntu-font-family/Ubuntu-L.ttf'
p893
sg21
g22
sbag7
(g8
g9
NtRp894
(dp895
g12
g13
sg14
S'KacstDecorative'
p896
sg16
I400
sg17
g13
sg18
g13
sg19
S'/usr/share/fonts/truetype/kacst/KacstDecorative.ttf'
p897
sg21
g22
sbag7
(g8
g9
NtRp898
(dp899
g12
g122
sg14
S'TlwgTypewriter'
p900
sg16
I400
sg17
g13
sg18
g13
sg19
S'/usr/share/fonts/truetype/tlwg/TlwgTypewriter-Oblique.ttf'
p901
sg21
g22
sbag7
(g8
g9
NtRp902
(dp903
g12
g29
sg14
S'Liberation Sans Narrow'
p904
sg16
I400
sg17
g160
sg18
g13
sg19
S'/usr/share/fonts/truetype/liberation/LiberationSansNarrow-Italic.ttf'
p905
sg21
g22
sbasS'defaultFamily'
p906
(dp907
S'afm'
p908
S'Helvetica'
p909
sS'ttf'
p910
S'Bitstream Vera Sans'
p911
ssS'ttffiles'
p912
(lp913
S'/usr/share/matplotlib/mpl-data/fonts/ttf/cmb10.ttf'
p914
aS'/usr/share/matplotlib/mpl-data/fonts/ttf/cmex10.ttf'
p915
aS'/usr/share/matplotlib/mpl-data/fonts/ttf/STIXNonUniIta.ttf'
p916
aS'/usr/share/matplotlib/mpl-data/fonts/ttf/STIXNonUni.ttf'
p917
aS'/usr/share/matplotlib/mpl-data/fonts/ttf/STIXSizThreeSymReg.ttf'
p918
aS'/usr/share/matplotlib/mpl-data/fonts/ttf/STIXSizTwoSymBol.ttf'
p919
aS'/usr/share/matplotlib/mpl-data/fonts/ttf/cmtt10.ttf'
p920
aS'/usr/share/matplotlib/mpl-data/fonts/ttf/STIXGeneral.ttf'
p921
aS'/usr/share/matplotlib/mpl-data/fonts/ttf/STIXNonUniBolIta.ttf'
p922
aS'/usr/share/matplotlib/mpl-data/fonts/ttf/STIXSizFiveSymReg.ttf'
p923
aS'/usr/share/matplotlib/mpl-data/fonts/ttf/STIXSizOneSymBol.ttf'
p924
aS'/usr/share/matplotlib/mpl-data/fonts/ttf/STIXGeneralBol.ttf'
p925
aS'/usr/share/matplotlib/mpl-data/fonts/ttf/cmr10.ttf'
p926
aS'/usr/share/matplotlib/mpl-data/fonts/ttf/STIXSizTwoSymReg.ttf'
p927
aS'/usr/share/matplotlib/mpl-data/fonts/ttf/STIXSizOneSymReg.ttf'
p928
aS'/usr/share/matplotlib/mpl-data/fonts/ttf/cmsy10.ttf'
p929
aS'/usr/share/matplotlib/mpl-data/fonts/ttf/STIXSizThreeSymBol.ttf'
p930
aS'/usr/share/matplotlib/mpl-data/fonts/ttf/cmss10.ttf'
p931
aS'/usr/share/matplotlib/mpl-data/fonts/ttf/STIXSizFourSymBol.ttf'
p932
aS'/usr/share/matplotlib/mpl-data/fonts/ttf/STIXGeneralItalic.ttf'
p933
aS'/usr/share/matplotlib/mpl-data/fonts/ttf/cmmi10.ttf'
p934
aS'/usr/share/matplotlib/mpl-data/fonts/ttf/STIXNonUniBol.ttf'
p935
aS'/usr/share/matplotlib/mpl-data/fonts/ttf/STIXGeneralBolIta.ttf'
p936
aS'/usr/share/matplotlib/mpl-data/fonts/ttf/STIXSizFourSymReg.ttf'
p937
aS'/usr/share/fonts/truetype/kacst/KacstTitle.ttf'
p938
aS'/usr/share/fonts/truetype/tlwg/TlwgTypo-Oblique.ttf'
p939
aS'/usr/share/fonts/truetype/ttf-indic-fonts-core/Malige-b.ttf'
p940
aS'/usr/share/fonts/wps-office/FZLSK.TTF'
p941
aS'/usr/share/fonts/truetype/tlwg/Umpush.ttf'
p942
aS'/usr/share/fonts/truetype/tlwg/Garuda-Bold.ttf'
p943
aS'/usr/share/fonts/wps-office/FZKTK.TTF'
p944
aS'/usr/share/fonts/truetype/tlwg/TlwgTypist-BoldOblique.ttf'
p945
aS'/usr/share/fonts/truetype/freefont/FreeSerif.ttf'
p946
aS'/usr/share/fonts/truetype/kacst/KacstScreen.ttf'
p947
aS'/usr/share/fonts/truetype/ttf-dejavu/DejaVuSansCondensed.ttf'
p948
aS'/usr/share/fonts/truetype/tlwg/Loma-Oblique.ttf'
p949
aS'/usr/share/fonts/truetype/tlwg/Norasi-Oblique.ttf'
p950
aS'/usr/share/fonts/TTF/conky/CaviarDreams.ttf'
p951
aS'/usr/share/fonts/truetype/gentium-basic/GenBasI.ttf'
p952
aS'/usr/share/fonts/wps-office/FZXKK.TTF'
p953
aS'/usr/share/fonts/truetype/ttf-dejavu/DejaVuSansMono.ttf'
p954
aS'/usr/share/fonts/truetype/ttf-punjabi-fonts/lohit_pa.ttf'
p955
aS'/usr/share/fonts/truetype/ttf-indic-fonts-core/Meera_04.ttf'
p956
aS'/usr/share/fonts/truetype/gentium-basic/GenBkBasBI.ttf'
p957
aS'/usr/share/fonts/truetype/fonts-japanese-gothic.ttf'
p958
aS'/usr/share/fonts/truetype/gentium-basic/GenBkBasR.ttf'
p959
aS'/usr/share/fonts/truetype/tlwg/Umpush-LightOblique.ttf'
p960
aS'/usr/share/fonts/truetype/freefont/FreeSerifBold.ttf'
p961
aS'/usr/share/fonts/truetype/freefont/FreeMonoBoldOblique.ttf'
p962
aS'/usr/share/fonts/truetype/tlwg/TlwgTypo.ttf'
p963
aS'/usr/share/fonts/wps-office/mtextra.ttf'
p964
aS'/usr/share/fonts/truetype/gentium/GenR102.ttf'
p965
aS'/usr/share/fonts/truetype/ttf-dejavu/DejaVuSerif.ttf'
p966
aS'/usr/share/fonts/truetype/liberation/LiberationSansNarrow-Bold.ttf'
p967
aS'/usr/share/fonts/truetype/freefont/FreeSansOblique.ttf'
p968
aS'/usr/share/fonts/truetype/gentium-basic/GenBasB.ttf'
p969
aS'/usr/share/fonts/truetype/liberation/LiberationMono-Regular.ttf'
p970
aS'/usr/share/fonts/truetype/liberation/LiberationSans-Bold.ttf'
p971
aS'/usr/share/fonts/truetype/ttf-indic-fonts-core/lohit_hi.ttf'
p972
aS'/usr/share/fonts/truetype/ttf-dejavu/DejaVuSans-Oblique.ttf'
p973
aS'/usr/share/fonts/wps-office/FZCCHK.TTF'
p974
aS'/usr/share/fonts/truetype/ttf-lyx/eufm10.ttf'
p975
aS'/usr/share/fonts/truetype/ubuntu-font-family/Ubuntu-R.ttf'
p976
aS'/usr/share/fonts/truetype/gentium-basic/GenBkBasB.ttf'
p977
aS'/usr/share/fonts/truetype/tlwg/Garuda.ttf'
p978
aS'/usr/share/fonts/truetype/ttf-dejavu/DejaVuSans-BoldOblique.ttf'
p979
aS'/usr/share/fonts/truetype/tlwg/TlwgTypist.ttf'
p980
aS'/usr/share/fonts/truetype/nanum/NanumGothic.ttf'
p981
aS'/usr/share/fonts/truetype/ttf-lyx/wasy10.ttf'
p982
aS'/usr/share/fonts/truetype/ttf-dejavu/DejaVuSansCondensed-BoldOblique.ttf'
p983
aS'/usr/share/fonts/truetype/ttf-dejavu/DejaVuSansCondensed-Bold.ttf'
p984
aS'/usr/share/fonts/truetype/gentium-basic/GenBasR.ttf'
p985
aS'/usr/share/fonts/truetype/ttf-lyx/msbm10.ttf'
p986
aS'/usr/share/fonts/truetype/tlwg/TlwgMono-Bold.ttf'
p987
aS'/usr/share/fonts/truetype/liberation/LiberationMono-Italic.ttf'
p988
aS'/usr/share/fonts/TTF/conky/Caviar Dreams Bold.ttf'
p989
aS'/usr/share/fonts/truetype/liberation/LiberationSerif-BoldItalic.ttf'
p990
aS'/usr/share/fonts/truetype/ttf-lyx/cmr10.ttf'
p991
aS'/usr/share/fonts/truetype/ttf-dejavu/DejaVuSans.ttf'
p992
aS'/usr/share/fonts/truetype/liberation/LiberationSerif-Bold.ttf'
p993
aS'/usr/share/fonts/truetype/kacst-one/KacstOne-Bold.ttf'
p994
aS'/usr/share/fonts/truetype/nanum/NanumMyeongjoBold.ttf'
p995
aS'/usr/share/fonts/truetype/tlwg/Waree-Bold.ttf'
p996
aS'/usr/share/fonts/wps-office/FZXH1K.TTF'
p997
aS'/usr/share/fonts/truetype/lao/Phetsarath_OT.ttf'
p998
aS'/usr/share/fonts/truetype/ttf-dejavu/DejaVuSansCondensed-Oblique.ttf'
p999
aS'/usr/share/fonts/wps-office/FZHTK.TTF'
p1000
aS'/usr/share/fonts/truetype/ttf-indic-fonts-core/utkal.ttf'
p1001
aS'/usr/share/fonts/truetype/kacst/KacstQurn.ttf'
p1002
aS'/usr/share/fonts/truetype/ttf-indic-fonts-core/MuktiNarrow.ttf'
p1003
aS'/usr/share/fonts/truetype/takao-gothic/TakaoPGothic.ttf'
p1004
aS'/usr/share/fonts/truetype/ttf-dejavu/DejaVuSerif-BoldItalic.ttf'
p1005
aS'/usr/share/fonts/truetype/ttf-lyx/rsfs10.ttf'
p1006
aS'/usr/share/fonts/truetype/kacst/mry_KacstQurn.ttf'
p1007
aS'/usr/share/fonts/truetype/ttf-indic-fonts-core/Kedage-b.ttf'
p1008
aS'/usr/share/fonts/truetype/ttf-dejavu/DejaVuSerif-Bold.ttf'
p1009
aS'/usr/share/fonts/truetype/ubuntu-font-family/UbuntuMono-R.ttf'
p1010
aS'/usr/share/fonts/truetype/tlwg/Norasi-Bold.ttf'
p1011
aS'/usr/share/fonts/truetype/tlwg/Norasi-BoldItalic.ttf'
p1012
aS'/usr/share/fonts/truetype/tlwg/Umpush-Bold.ttf'
p1013
aS'/usr/share/fonts/truetype/tlwg/Kinnari-BoldOblique.ttf'
p1014
aS'/usr/share/fonts/truetype/liberation/LiberationSans-BoldItalic.ttf'
p1015
aS'/usr/share/fonts/truetype/freefont/FreeMono.ttf'
p1016
aS'/usr/share/fonts/truetype/ttf-indic-fonts-core/Malige-n.ttf'
p1017
aS'/usr/share/fonts/truetype/kacst/KacstNaskh.ttf'
p1018
aS'/usr/share/fonts/truetype/ttf-indic-fonts-core/Rekha.ttf'
p1019
aS'/usr/share/fonts/truetype/liberation/LiberationSansNarrow-BoldItalic.ttf'
p1020
aS'/usr/share/fonts/truetype/tlwg/Norasi-BoldOblique.ttf'
p1021
aS'/usr/share/fonts/truetype/tlwg/Kinnari-BoldItalic.ttf'
p1022
aS'/usr/share/fonts/truetype/tlwg/Sawasdee.ttf'
p1023
aS'/usr/share/fonts/truetype/kacst-one/KacstOne.ttf'
p1024
aS'/usr/share/fonts/truetype/freefont/FreeSansBold.ttf'
p1025
aS'/usr/share/fonts/truetype/liberation/LiberationMono-Bold.ttf'
p1026
aS'/usr/share/fonts/truetype/ttf-indic-fonts-core/lohit_bn.ttf'
p1027
aS'/usr/share/fonts/truetype/ubuntu-font-family/UbuntuMono-RI.ttf'
p1028
aS'/usr/share/fonts/wps-office/FZSongS_20100603.TTF'
p1029
aS'/usr/share/fonts/truetype/liberation/LiberationSerif-Regular.ttf'
p1030
aS'/usr/share/fonts/truetype/ttf-dejavu/DejaVuSansMono-BoldOblique.ttf'
p1031
aS'/usr/share/fonts/truetype/tlwg/Purisa-Bold.ttf'
p1032
aS'/usr/share/fonts/truetype/freefont/FreeMonoBold.ttf'
p1033
aS'/usr/share/fonts/truetype/ttf-dejavu/DejaVuSans-Bold.ttf'
p1034
aS'/usr/share/fonts/truetype/tlwg/TlwgTypist-Bold.ttf'
p1035
aS'/usr/share/fonts/truetype/ttf-dejavu/DejaVuSans-ExtraLight.ttf'
p1036
aS'/usr/share/fonts/truetype/kacst/KacstBook.ttf'
p1037
aS'/usr/share/fonts/wps-office/FZSSK.TTF'
p1038
aS'/usr/share/fonts/truetype/kacst/KacstFarsi.ttf'
p1039
aS'/usr/share/fonts/truetype/kacst/KacstPoster.ttf'
p1040
aS'/usr/share/fonts/truetype/tlwg/Purisa.ttf'
p1041
aS'/usr/share/fonts/wps-office/FZWBK.TTF'
p1042
aS'/usr/share/fonts/truetype/ubuntu-font-family/Ubuntu-LI.ttf'
p1043
aS'/usr/share/fonts/truetype/ttf-lyx/cmmi10.ttf'
p1044
aS'/usr/share/fonts/truetype/ttf-indic-fonts-core/Pothana2000.ttf'
p1045
aS'/usr/share/fonts/truetype/tlwg/Umpush-Oblique.ttf'
p1046
aS'/usr/share/fonts/truetype/nanum/NanumGothicBold.ttf'
p1047
aS'/usr/share/fonts/truetype/liberation/LiberationMono-BoldItalic.ttf'
p1048
aS'/usr/share/fonts/truetype/tlwg/Purisa-BoldOblique.ttf'
p1049
aS'/usr/share/fonts/truetype/tlwg/Loma-BoldOblique.ttf'
p1050
aS'/usr/share/fonts/truetype/tlwg/TlwgTypewriter.ttf'
p1051
aS'/usr/share/fonts/truetype/ttf-dejavu/DejaVuSerifCondensed-BoldItalic.ttf'
p1052
aS'/usr/share/fonts/truetype/ubuntu-font-family/UbuntuMono-B.ttf'
p1053
aS'/usr/share/fonts/truetype/ttf-lyx/esint10.ttf'
p1054
aS'/usr/share/fonts/truetype/openoffice/opens___.ttf'
p1055
aS'/usr/share/fonts/truetype/tlwg/TlwgMono-Oblique.ttf'
p1056
aS'/usr/share/fonts/truetype/ttf-indic-fonts-core/gargi.ttf'
p1057
aS'/usr/share/fonts/truetype/tlwg/Norasi-Italic.ttf'
p1058
aS'/usr/share/fonts/truetype/ubuntu-font-family/Ubuntu-BI.ttf'
p1059
aS'/usr/share/fonts/truetype/ttf-khmeros-core/KhmerOSsys.ttf'
p1060
aS'/usr/share/fonts/truetype/tlwg/TlwgTypist-Oblique.ttf'
p1061
aS'/usr/share/fonts/truetype/tlwg/Norasi.ttf'
p1062
aS'/usr/share/fonts/truetype/ttf-dejavu/DejaVuSerifCondensed-Italic.ttf'
p1063
aS'/usr/share/fonts/truetype/gentium/GenAI102.ttf'
p1064
aS'/usr/share/fonts/truetype/ttf-indic-fonts-core/MuktiNarrowBold.ttf'
p1065
aS'/usr/share/fonts/truetype/gentium/GenAR102.ttf'
p1066
aS'/usr/share/fonts/truetype/liberation/LiberationSans-Italic.ttf'
p1067
aS'/usr/share/fonts/truetype/tlwg/Umpush-BoldOblique.ttf'
p1068
aS'/usr/share/fonts/truetype/ubuntu-font-family/Ubuntu-B.ttf'
p1069
aS'/usr/share/fonts/truetype/freefont/FreeSansBoldOblique.ttf'
p1070
aS'/usr/share/fonts/truetype/tlwg/TlwgTypo-Bold.ttf'
p1071
aS'/usr/share/fonts/truetype/ubuntu-font-family/Ubuntu-RI.ttf'
p1072
aS'/usr/share/fonts/truetype/tlwg/Waree-Oblique.ttf'
p1073
aS'/usr/share/fonts/truetype/liberation/LiberationSerif-Italic.ttf'
p1074
aS'/usr/share/fonts/truetype/tlwg/TlwgTypewriter-Bold.ttf'
p1075
aS'/usr/share/fonts/truetype/tlwg/Waree-BoldOblique.ttf'
p1076
aS'/usr/share/fonts/truetype/freefont/FreeSans.ttf'
p1077
aS'/usr/share/fonts/truetype/tlwg/Kinnari-Oblique.ttf'
p1078
aS'/usr/share/fonts/truetype/ttf-dejavu/DejaVuSansMono-Bold.ttf'
p1079
aS'/usr/share/fonts/truetype/gentium/GenI102.ttf'
p1080
aS'/usr/share/fonts/truetype/freefont/FreeSerifBoldItalic.ttf'
p1081
aS'/usr/share/fonts/truetype/kacst/KacstArt.ttf'
p1082
aS'/usr/share/fonts/truetype/tlwg/Waree.ttf'
p1083
aS'/usr/share/fonts/truetype/ttf-indic-fonts-core/Vemana.ttf'
p1084
aS'/usr/share/fonts/wps-office/FZXBSK.TTF'
p1085
aS'/usr/share/fonts/truetype/tlwg/Umpush-Light.ttf'
p1086
aS'/usr/share/fonts/truetype/ttf-indic-fonts-core/lohit_ta.ttf'
p1087
aS'/usr/share/fonts/truetype/liberation/LiberationSans-Regular.ttf'
p1088
aS'/usr/share/fonts/truetype/ubuntu-font-family/Ubuntu-C.ttf'
p1089
aS'/usr/share/fonts/truetype/ttf-lyx/cmsy10.ttf'
p1090
aS'/usr/share/fonts/truetype/tlwg/Kinnari.ttf'
p1091
aS'/usr/share/fonts/truetype/gentium-basic/GenBasBI.ttf'
p1092
aS'/usr/share/fonts/truetype/ubuntu-font-family/UbuntuMono-BI.ttf'
p1093
aS'/usr/share/fonts/truetype/ttf-dejavu/DejaVuSerifCondensed-Bold.ttf'
p1094
aS'/usr/share/fonts/wps-office/FZYTK.TTF'
p1095
aS'/usr/share/fonts/truetype/ttf-indic-fonts-core/Rachana_04.ttf'
p1096
aS'/usr/share/fonts/truetype/tlwg/TlwgMono-BoldOblique.ttf'
p1097
aS'/usr/share/fonts/TTF/conky/CaviarDreams_BoldItalic.ttf'
p1098
aS'/usr/share/fonts/TTF/conky/CaviarDreams_Italic.ttf'
p1099
aS'/usr/share/fonts/truetype/ttf-indic-fonts-core/Kedage-n.ttf'
p1100
aS'/usr/share/fonts/truetype/tlwg/Kinnari-Bold.ttf'
p1101
aS'/usr/share/fonts/truetype/freefont/FreeMonoOblique.ttf'
p1102
aS'/usr/share/fonts/truetype/tlwg/TlwgMono.ttf'
p1103
aS'/usr/share/fonts/truetype/tlwg/TlwgTypewriter-BoldOblique.ttf'
p1104
aS'/usr/share/fonts/truetype/gentium-basic/GenBkBasI.ttf'
p1105
aS'/usr/share/fonts/truetype/ttf-dejavu/DejaVuSansMono-Oblique.ttf'
p1106
aS'/usr/share/fonts/truetype/liberation/LiberationSansNarrow-Regular.ttf'
p1107
aS'/usr/share/fonts/wps-office/FZFSK.TTF'
p1108
aS'/usr/share/fonts/wps-office/FZSongS(SIP)_2010603.TTF'
p1109
aS'/usr/share/fonts/truetype/tlwg/Purisa-Oblique.ttf'
p1110
aS'/usr/share/fonts/truetype/tlwg/Kinnari-Italic.ttf'
p1111
aS'/usr/share/fonts/truetype/tlwg/Sawasdee-BoldOblique.ttf'
p1112
aS'/usr/share/fonts/truetype/tlwg/Sawasdee-Bold.ttf'
p1113
aS'/usr/share/fonts/truetype/kacst/KacstDigital.ttf'
p1114
aS'/usr/share/fonts/truetype/ttf-dejavu/DejaVuSerifCondensed.ttf'
p1115
aS'/usr/share/fonts/truetype/ttf-punjabi-fonts/Saab.ttf'
p1116
aS'/usr/share/fonts/truetype/kacst/KacstOffice.ttf'
p1117
aS'/usr/share/fonts/truetype/ttf-indic-fonts-core/lohit_gu.ttf'
p1118
aS'/usr/share/fonts/truetype/tlwg/Sawasdee-Oblique.ttf'
p1119
aS'/usr/share/fonts/truetype/nanum/NanumMyeongjo.ttf'
p1120
aS'/usr/share/fonts/truetype/ttf-khmeros-core/KhmerOS.ttf'
p1121
aS'/usr/share/fonts/truetype/tlwg/Loma.ttf'
p1122
aS'/usr/share/fonts/truetype/tlwg/Garuda-Oblique.ttf'
p1123
aS'/usr/share/fonts/truetype/tlwg/Loma-Bold.ttf'
p1124
aS'/usr/share/fonts/truetype/tlwg/Garuda-BoldOblique.ttf'
p1125
aS'/usr/share/fonts/truetype/kacst/KacstLetter.ttf'
p1126
aS'/usr/share/fonts/truetype/kacst/KacstPen.ttf'
p1127
aS'/usr/share/fonts/truetype/tlwg/TlwgTypo-BoldOblique.ttf'
p1128
aS'/usr/share/fonts/truetype/ttf-lyx/msam10.ttf'
p1129
aS'/usr/share/fonts/truetype/ttf-dejavu/DejaVuSerif-Italic.ttf'
p1130
aS'/usr/share/fonts/truetype/freefont/Untitled1.ttf'
p1131
aS'/usr/share/fonts/truetype/freefont/FreeSerifItalic.ttf'
p1132
aS'/usr/share/fonts/truetype/kacst/KacstTitleL.ttf'
p1133
aS'/usr/share/fonts/truetype/ubuntu-font-family/Ubuntu-L.ttf'
p1134
aS'/usr/share/fonts/truetype/kacst/KacstDecorative.ttf'
p1135
aS'/usr/share/fonts/truetype/tlwg/TlwgTypewriter-Oblique.ttf'
p1136
aS'/usr/share/fonts/truetype/liberation/LiberationSansNarrow-Italic.ttf'
p1137
aS'/usr/share/fonts/truetype/ttf-lyx/cmex10.ttf'
p1138
asS'_FontManager__default_weight'
p1139
g13
sS'_version'
p1140
I7
sS'ttf_lookup_cache'
p1141
(dp1142
sS'default_size'
p1143
NsS'defaultFont'
p1144
(dp1145
g908
Nsg910
g914
ssS'afmfiles'
p1146
(lp1147
S'/usr/share/matplotlib/mpl-data/fonts/afm/pzcmi8a.afm'
p1148
aS'/usr/share/matplotlib/mpl-data/fonts/pdfcorefonts/Helvetica.afm'
p1149
aS'/usr/share/matplotlib/mpl-data/fonts/afm/phvl8a.afm'
p1150
aS'/usr/share/matplotlib/mpl-data/fonts/afm/putbi8a.afm'
p1151
aS'/usr/share/matplotlib/mpl-data/fonts/pdfcorefonts/Helvetica-BoldOblique.afm'
p1152
aS'/usr/share/matplotlib/mpl-data/fonts/afm/phvro8an.afm'
p1153
aS'/usr/share/matplotlib/mpl-data/fonts/afm/pbkd8a.afm'
p1154
aS'/usr/share/matplotlib/mpl-data/fonts/afm/pcrbo8a.afm'
p1155
aS'/usr/share/matplotlib/mpl-data/fonts/pdfcorefonts/Helvetica-Bold.afm'
p1156
aS'/usr/share/matplotlib/mpl-data/fonts/pdfcorefonts/Times-BoldItalic.afm'
p1157
aS'/usr/share/matplotlib/mpl-data/fonts/afm/putr8a.afm'
p1158
aS'/usr/share/matplotlib/mpl-data/fonts/afm/pagdo8a.afm'
p1159
aS'/usr/share/matplotlib/mpl-data/fonts/afm/putb8a.afm'
p1160
aS'/usr/share/matplotlib/mpl-data/fonts/afm/pncb8a.afm'
p1161
aS'/usr/share/matplotlib/mpl-data/fonts/pdfcorefonts/Courier-Bold.afm'
p1162
aS'/usr/share/matplotlib/mpl-data/fonts/afm/pncbi8a.afm'
p1163
aS'/usr/share/matplotlib/mpl-data/fonts/afm/pcrb8a.afm'
p1164
aS'/usr/share/matplotlib/mpl-data/fonts/afm/phvr8a.afm'
p1165
aS'/usr/share/matplotlib/mpl-data/fonts/afm/cmtt10.afm'
p1166
aS'/usr/share/matplotlib/mpl-data/fonts/pdfcorefonts/Symbol.afm'
p1167
aS'/usr/share/matplotlib/mpl-data/fonts/afm/phvr8an.afm'
p1168
aS'/usr/share/matplotlib/mpl-data/fonts/afm/phvro8a.afm'
p1169
aS'/usr/share/matplotlib/mpl-data/fonts/afm/ptmr8a.afm'
p1170
aS'/usr/share/matplotlib/mpl-data/fonts/afm/pplbi8a.afm'
p1171
aS'/usr/share/matplotlib/mpl-data/fonts/afm/cmsy10.afm'
p1172
aS'/usr/share/matplotlib/mpl-data/fonts/afm/pagk8a.afm'
p1173
aS'/usr/share/matplotlib/mpl-data/fonts/pdfcorefonts/Courier-BoldOblique.afm'
p1174
aS'/usr/share/matplotlib/mpl-data/fonts/afm/pcrr8a.afm'
p1175
aS'/usr/share/matplotlib/mpl-data/fonts/afm/cmmi10.afm'
p1176
aS'/usr/share/matplotlib/mpl-data/fonts/afm/pplb8a.afm'
p1177
aS'/usr/share/matplotlib/mpl-data/fonts/afm/pbkdi8a.afm'
p1178
aS'/usr/share/matplotlib/mpl-data/fonts/afm/phvbo8a.afm'
p1179
aS'/usr/share/matplotlib/mpl-data/fonts/afm/cmr10.afm'
p1180
aS'/usr/share/matplotlib/mpl-data/fonts/pdfcorefonts/Times-Bold.afm'
p1181
aS'/usr/share/matplotlib/mpl-data/fonts/afm/psyr.afm'
p1182
aS'/usr/share/matplotlib/mpl-data/fonts/afm/phvlo8a.afm'
p1183
aS'/usr/share/matplotlib/mpl-data/fonts/afm/phvb8a.afm'
p1184
aS'/usr/share/matplotlib/mpl-data/fonts/afm/pzdr.afm'
p1185
aS'/usr/share/matplotlib/mpl-data/fonts/afm/ptmri8a.afm'
p1186
aS'/usr/share/matplotlib/mpl-data/fonts/afm/pplr8a.afm'
p1187
aS'/usr/share/matplotlib/mpl-data/fonts/afm/pbkl8a.afm'
p1188
aS'/usr/share/matplotlib/mpl-data/fonts/afm/pcrro8a.afm'
p1189
aS'/usr/share/matplotlib/mpl-data/fonts/pdfcorefonts/ZapfDingbats.afm'
p1190
aS'/usr/share/matplotlib/mpl-data/fonts/afm/ptmb8a.afm'
p1191
aS'/usr/share/matplotlib/mpl-data/fonts/afm/putri8a.afm'
p1192
aS'/usr/share/matplotlib/mpl-data/fonts/afm/pplri8a.afm'
p1193
aS'/usr/share/matplotlib/mpl-data/fonts/afm/ptmbi8a.afm'
p1194
aS'/usr/share/matplotlib/mpl-data/fonts/afm/pbkli8a.afm'
p1195
aS'/usr/share/matplotlib/mpl-data/fonts/pdfcorefonts/Courier-Oblique.afm'
p1196
aS'/usr/share/matplotlib/mpl-data/fonts/pdfcorefonts/Courier.afm'
p1197
aS'/usr/share/matplotlib/mpl-data/fonts/afm/pagko8a.afm'
p1198
aS'/usr/share/matplotlib/mpl-data/fonts/afm/pagd8a.afm'
p1199
aS'/usr/share/matplotlib/mpl-data/fonts/afm/pncr8a.afm'
p1200
aS'/usr/share/matplotlib/mpl-data/fonts/afm/phvbo8an.afm'
p1201
aS'/usr/share/matplotlib/mpl-data/fonts/pdfcorefonts/Times-Italic.afm'
p1202
aS'/usr/share/matplotlib/mpl-data/fonts/afm/cmex10.afm'
p1203
aS'/usr/share/matplotlib/mpl-data/fonts/pdfcorefonts/Times-Roman.afm'
p1204
aS'/usr/share/matplotlib/mpl-data/fonts/afm/phvb8an.afm'
p1205
aS'/usr/share/matplotlib/mpl-data/fonts/pdfcorefonts/Helvetica-Oblique.afm'
p1206
aS'/usr/share/matplotlib/mpl-data/fonts/afm/pncri8a.afm'
p1207
aS'/usr/share/fonts/type1/gsfonts/n021024l.afm'
p1208
aS'/usr/share/fonts/type1/gsfonts/s050000l.afm'
p1209
aS'/usr/share/fonts/type1/gsfonts/n021004l.afm'
p1210
aS'/usr/share/fonts/type1/gsfonts/n019024l.afm'
p1211
aS'/usr/share/fonts/type1/gsfonts/p052024l.afm'
p1212
aS'/usr/share/fonts/type1/gsfonts/p052004l.afm'
p1213
aS'/usr/share/fonts/X11/Type1/c0648bt_.afm'
p1214
aS'/usr/share/fonts/type1/gsfonts/b018012l.afm'
p1215
aS'/usr/share/fonts/X11/Type1/c0649bt_.afm'
p1216
aS'/usr/share/fonts/type1/gsfonts/b018015l.afm'
p1217
aS'/usr/share/fonts/type1/gsfonts/a010033l.afm'
p1218
aS'/usr/share/fonts/type1/gsfonts/n019044l.afm'
p1219
aS'/usr/share/fonts/type1/gsfonts/z003034l.afm'
p1220
aS'/usr/share/fonts/type1/gsfonts/n022024l.afm'
p1221
aS'/usr/share/fonts/type1/gsfonts/n019043l.afm'
p1222
aS'/usr/share/fonts/type1/gsfonts/n019004l.afm'
p1223
aS'/usr/share/fonts/X11/Type1/c0633bt_.afm'
p1224
aS'/usr/share/fonts/type1/gsfonts/n019064l.afm'
p1225
aS'/usr/share/fonts/type1/gsfonts/n019003l.afm'
p1226
aS'/usr/share/fonts/type1/gsfonts/d050000l.afm'
p1227
aS'/usr/share/fonts/type1/gsfonts/b018035l.afm'
p1228
aS'/usr/share/fonts/type1/gsfonts/a010013l.afm'
p1229
aS'/usr/share/fonts/X11/Type1/c0582bt_.afm'
p1230
aS'/usr/share/fonts/type1/gsfonts/n022004l.afm'
p1231
aS'/usr/share/fonts/X11/Type1/c0583bt_.afm'
p1232
aS'/usr/share/fonts/type1/mathml/Symbol.afm'
p1233
aS'/usr/share/fonts/type1/gsfonts/a010035l.afm'
p1234
aS'/usr/share/fonts/type1/gsfonts/c059033l.afm'
p1235
aS'/usr/share/fonts/type1/gsfonts/n019023l.afm'
p1236
aS'/usr/share/fonts/type1/gsfonts/n022003l.afm'
p1237
aS'/usr/share/fonts/type1/gsfonts/n019063l.afm'
p1238
aS'/usr/share/fonts/type1/gsfonts/p052023l.afm'
p1239
aS'/usr/share/fonts/X11/Type1/Symbol.afm'
p1240
aS'/usr/share/fonts/type1/gsfonts/p052003l.afm'
p1241
aS'/usr/share/fonts/type1/gsfonts/a010015l.afm'
p1242
aS'/usr/share/fonts/type1/gsfonts/c059036l.afm'
p1243
aS'/usr/share/fonts/type1/gsfonts/b018032l.afm'
p1244
aS'/usr/share/fonts/type1/gsfonts/c059016l.afm'
p1245
aS'/usr/share/fonts/type1/gsfonts/n022023l.afm'
p1246
aS'/usr/share/fonts/type1/gsfonts/c059013l.afm'
p1247
aS'/usr/share/fonts/type1/gsfonts/n021023l.afm'
p1248
aS'/usr/share/fonts/type1/gsfonts/n021003l.afm'
p1249
aS'/usr/share/fonts/X11/Type1/c0611bt_.afm'
p1250
aS'/usr/share/fonts/X11/Type1/c0632bt_.afm'
p1251
aS'/usr/share/fonts/X11/Type1/c0419bt_.afm'
p1252
asS'afmlist'
p1253
(lp1254
g7
(g8
g9
NtRp1255
(dp1256
g12
g29
sg14
S'ITC Zapf Chancery'
p1257
sg16
I500
sg17
g13
sg18
g13
sg19
g1148
sg21
g22
sbag7
(g8
g9
NtRp1258
(dp1259
g12
g13
sg14
S'Helvetica'
p1260
sg16
I500
sg17
g13
sg18
g13
sg19
g1149
sg21
g22
sbag7
(g8
g9
NtRp1261
(dp1262
g12
g13
sg14
S'Helvetica'
p1263
sg16
I200
sg17
g13
sg18
g13
sg19
g1150
sg21
g22
sbag7
(g8
g9
NtRp1264
(dp1265
g12
g29
sg14
S'Utopia'
p1266
sg16
I700
sg17
g13
sg18
g13
sg19
g1151
sg21
g22
sbag7
(g8
g9
NtRp1267
(dp1268
g12
g29
sg14
S'Helvetica'
p1269
sg16
I700
sg17
g13
sg18
g13
sg19
g1152
sg21
g22
sbag7
(g8
g9
NtRp1270
(dp1271
g12
g29
sg14
S'Helvetica'
p1272
sg16
I500
sg17
g160
sg18
g13
sg19
g1153
sg21
g22
sbag7
(g8
g9
NtRp1273
(dp1274
g12
g13
sg14
S'ITC Bookman'
p1275
sg16
I600
sg17
g13
sg18
g13
sg19
g1154
sg21
g22
sbag7
(g8
g9
NtRp1276
(dp1277
g12
g29
sg14
S'Courier'
p1278
sg16
I700
sg17
g13
sg18
g13
sg19
g1155
sg21
g22
sbag7
(g8
g9
NtRp1279
(dp1280
g12
g13
sg14
S'Helvetica'
p1281
sg16
I700
sg17
g13
sg18
g13
sg19
g1156
sg21
g22
sbag7
(g8
g9
NtRp1282
(dp1283
g12
g29
sg14
S'Times'
p1284
sg16
I700
sg17
g13
sg18
g13
sg19
g1157
sg21
g22
sbag7
(g8
g9
NtRp1285
(dp1286
g12
g13
sg14
S'Utopia'
p1287
sg16
I400
sg17
g13
sg18
g13
sg19
g1158
sg21
g22
sbag7
(g8
g9
NtRp1288
(dp1289
g12
g29
sg14
S'ITC Avant Garde Gothic'
p1290
sg16
I600
sg17
g13
sg18
g13
sg19
g1159
sg21
g22
sbag7
(g8
g9
NtRp1291
(dp1292
g12
g13
sg14
S'Utopia'
p1293
sg16
I700
sg17
g13
sg18
g13
sg19
g1160
sg21
g22
sbag7
(g8
g9
NtRp1294
(dp1295
g12
g13
sg14
S'New Century Schoolbook'
p1296
sg16
I700
sg17
g13
sg18
g13
sg19
g1161
sg21
g22
sbag7
(g8
g9
NtRp1297
(dp1298
g12
g13
sg14
S'Courier'
p1299
sg16
I700
sg17
g13
sg18
g13
sg19
g1162
sg21
g22
sbag7
(g8
g9
NtRp1300
(dp1301
g12
g29
sg14
S'New Century Schoolbook'
p1302
sg16
I700
sg17
g13
sg18
g13
sg19
g1163
sg21
g22
sbag7
(g8
g9
NtRp1303
(dp1304
g12
g13
sg14
S'Courier'
p1305
sg16
I700
sg17
g13
sg18
g13
sg19
g1164
sg21
g22
sbag7
(g8
g9
NtRp1306
(dp1307
g12
g13
sg14
S'Helvetica'
p1308
sg16
I500
sg17
g13
sg18
g13
sg19
g1165
sg21
g22
sbag7
(g8
g9
NtRp1309
(dp1310
g12
g13
sg14
S'Computer Modern'
p1311
sg16
I500
sg17
g13
sg18
g13
sg19
g1166
sg21
g22
sbag7
(g8
g9
NtRp1312
(dp1313
g12
g13
sg14
S'Symbol'
p1314
sg16
I500
sg17
g13
sg18
g13
sg19
g1167
sg21
g22
sbag7
(g8
g9
NtRp1315
(dp1316
g12
g13
sg14
S'Helvetica'
p1317
sg16
I500
sg17
g160
sg18
g13
sg19
g1168
sg21
g22
sbag7
(g8
g9
NtRp1318
(dp1319
g12
g29
sg14
S'Helvetica'
p1320
sg16
I500
sg17
g13
sg18
g13
sg19
g1169
sg21
g22
sbag7
(g8
g9
NtRp1321
(dp1322
g12
g13
sg14
S'Times'
p1323
sg16
I500
sg17
g13
sg18
g13
sg19
g1170
sg21
g22
sbag7
(g8
g9
NtRp1324
(dp1325
g12
g29
sg14
S'Palatino'
p1326
sg16
I700
sg17
g13
sg18
g13
sg19
g1171
sg21
g22
sbag7
(g8
g9
NtRp1327
(dp1328
g12
g29
sg14
S'Computer Modern'
p1329
sg16
I500
sg17
g13
sg18
g13
sg19
g1172
sg21
g22
sbag7
(g8
g9
NtRp1330
(dp1331
g12
g13
sg14
S'ITC Avant Garde Gothic'
p1332
sg16
I400
sg17
g13
sg18
g13
sg19
g1173
sg21
g22
sbag7
(g8
g9
NtRp1333
(dp1334
g12
g29
sg14
S'Courier'
p1335
sg16
I700
sg17
g13
sg18
g13
sg19
g1174
sg21
g22
sbag7
(g8
g9
NtRp1336
(dp1337
g12
g13
sg14
S'Courier'
p1338
sg16
I500
sg17
g13
sg18
g13
sg19
g1175
sg21
g22
sbag7
(g8
g9
NtRp1339
(dp1340
g12
g29
sg14
S'Computer Modern'
p1341
sg16
I500
sg17
g13
sg18
g13
sg19
g1176
sg21
g22
sbag7
(g8
g9
NtRp1342
(dp1343
g12
g13
sg14
S'Palatino'
p1344
sg16
I700
sg17
g13
sg18
g13
sg19
g1177
sg21
g22
sbag7
(g8
g9
NtRp1345
(dp1346
g12
g29
sg14
S'ITC Bookman'
p1347
sg16
I600
sg17
g13
sg18
g13
sg19
g1178
sg21
g22
sbag7
(g8
g9
NtRp1348
(dp1349
g12
g29
sg14
S'Helvetica'
p1350
sg16
I700
sg17
g13
sg18
g13
sg19
g1179
sg21
g22
sbag7
(g8
g9
NtRp1351
(dp1352
g12
g13
sg14
S'Computer Modern'
p1353
sg16
I500
sg17
g13
sg18
g13
sg19
g1180
sg21
g22
sbag7
(g8
g9
NtRp1354
(dp1355
g12
g13
sg14
S'Times'
p1356
sg16
I700
sg17
g13
sg18
g13
sg19
g1181
sg21
g22
sbag7
(g8
g9
NtRp1357
(dp1358
g12
g13
sg14
S'Symbol'
p1359
sg16
I500
sg17
g13
sg18
g13
sg19
g1182
sg21
g22
sbag7
(g8
g9
NtRp1360
(dp1361
g12
g29
sg14
S'Helvetica'
p1362
sg16
I200
sg17
g13
sg18
g13
sg19
g1183
sg21
g22
sbag7
(g8
g9
NtRp1363
(dp1364
g12
g13
sg14
S'Helvetica'
p1365
sg16
I700
sg17
g13
sg18
g13
sg19
g1184
sg21
g22
sbag7
(g8
g9
NtRp1366
(dp1367
g12
g13
sg14
S'ITC Zapf Dingbats'
p1368
sg16
I500
sg17
g13
sg18
g13
sg19
g1185
sg21
g22
sbag7
(g8
g9
NtRp1369
(dp1370
g12
g29
sg14
S'Times'
p1371
sg16
I500
sg17
g13
sg18
g13
sg19
g1186
sg21
g22
sbag7
(g8
g9
NtRp1372
(dp1373
g12
g13
sg14
S'Palatino'
p1374
sg16
I500
sg17
g13
sg18
g13
sg19
g1187
sg21
g22
sbag7
(g8
g9
NtRp1375
(dp1376
g12
g13
sg14
S'ITC Bookman'
p1377
sg16
I200
sg17
g13
sg18
g13
sg19
g1188
sg21
g22
sbag7
(g8
g9
NtRp1378
(dp1379
g12
g29
sg14
S'Courier'
p1380
sg16
I500
sg17
g13
sg18
g13
sg19
g1189
sg21
g22
sbag7
(g8
g9
NtRp1381
(dp1382
g12
g13
sg14
S'ZapfDingbats'
p1383
sg16
I500
sg17
g13
sg18
g13
sg19
g1190
sg21
g22
sbag7
(g8
g9
NtRp1384
(dp1385
g12
g13
sg14
S'Times'
p1386
sg16
I700
sg17
g13
sg18
g13
sg19
g1191
sg21
g22
sbag7
(g8
g9
NtRp1387
(dp1388
g12
g29
sg14
S'Utopia'
p1389
sg16
I400
sg17
g13
sg18
g13
sg19
g1192
sg21
g22
sbag7
(g8
g9
NtRp1390
(dp1391
g12
g29
sg14
S'Palatino'
p1392
sg16
I500
sg17
g13
sg18
g13
sg19
g1193
sg21
g22
sbag7
(g8
g9
NtRp1393
(dp1394
g12
g29
sg14
S'Times'
p1395
sg16
I700
sg17
g13
sg18
g13
sg19
g1194
sg21
g22
sbag7
(g8
g9
NtRp1396
(dp1397
g12
g29
sg14
S'ITC Bookman'
p1398
sg16
I200
sg17
g13
sg18
g13
sg19
g1195
sg21
g22
sbag7
(g8
g9
NtRp1399
(dp1400
g12
g29
sg14
S'Courier'
p1401
sg16
I500
sg17
g13
sg18
g13
sg19
g1196
sg21
g22
sbag7
(g8
g9
NtRp1402
(dp1403
g12
g13
sg14
S'Courier'
p1404
sg16
I500
sg17
g13
sg18
g13
sg19
g1197
sg21
g22
sbag7
(g8
g9
NtRp1405
(dp1406
g12
g29
sg14
S'ITC Avant Garde Gothic'
p1407
sg16
I400
sg17
g13
sg18
g13
sg19
g1198
sg21
g22
sbag7
(g8
g9
NtRp1408
(dp1409
g12
g13
sg14
S'ITC Avant Garde Gothic'
p1410
sg16
I600
sg17
g13
sg18
g13
sg19
g1199
sg21
g22
sbag7
(g8
g9
NtRp1411
(dp1412
g12
g13
sg14
S'New Century Schoolbook'
p1413
sg16
I500
sg17
g13
sg18
g13
sg19
g1200
sg21
g22
sbag7
(g8
g9
NtRp1414
(dp1415
g12
g29
sg14
S'Helvetica'
p1416
sg16
I700
sg17
g160
sg18
g13
sg19
g1201
sg21
g22
sbag7
(g8
g9
NtRp1417
(dp1418
g12
g29
sg14
S'Times'
p1419
sg16
I500
sg17
g13
sg18
g13
sg19
g1202
sg21
g22
sbag7
(g8
g9
NtRp1420
(dp1421
g12
g13
sg14
S'Computer Modern'
p1422
sg16
I500
sg17
g13
sg18
g13
sg19
g1203
sg21
g22
sbag7
(g8
g9
NtRp1423
(dp1424
g12
g13
sg14
S'Times'
p1425
sg16
I500
sg17
g13
sg18
g13
sg19
g1204
sg21
g22
sbag7
(g8
g9
NtRp1426
(dp1427
g12
g13
sg14
S'Helvetica'
p1428
sg16
I700
sg17
g160
sg18
g13
sg19
g1205
sg21
g22
sbag7
(g8
g9
NtRp1429
(dp1430
g12
g29
sg14
S'Helvetica'
p1431
sg16
I500
sg17
g13
sg18
g13
sg19
g1206
sg21
g22
sbag7
(g8
g9
NtRp1432
(dp1433
g12
g29
sg14
S'New Century Schoolbook'
p1434
sg16
I500
sg17
g13
sg18
g13
sg19
g1207
sg21
g22
sbag7
(g8
g9
NtRp1435
(dp1436
g12
g29
sg14
S'Nimbus Roman No9 L'
p1437
sg16
I700
sg17
g13
sg18
g13
sg19
g1208
sg21
g22
sbag7
(g8
g9
NtRp1438
(dp1439
g12
g13
sg14
S'Standard Symbols L'
p1440
sg16
I400
sg17
g13
sg18
g13
sg19
g1209
sg21
g22
sbag7
(g8
g9
NtRp1441
(dp1442
g12
g13
sg14
S'Nimbus Roman No9 L'
p1443
sg16
I700
sg17
g13
sg18
g13
sg19
g1210
sg21
g22
sbag7
(g8
g9
NtRp1444
(dp1445
g12
g29
sg14
S'Nimbus Sans L'
p1446
sg16
I700
sg17
g13
sg18
g13
sg19
g1211
sg21
g22
sbag7
(g8
g9
NtRp1447
(dp1448
g12
g29
sg14
S'URW Palladio L'
p1449
sg16
I700
sg17
g13
sg18
g13
sg19
g1212
sg21
g22
sbag7
(g8
g9
NtRp1450
(dp1451
g12
g13
sg14
S'URW Palladio L'
p1452
sg16
I700
sg17
g13
sg18
g13
sg19
g1213
sg21
g22
sbag7
(g8
g9
NtRp1453
(dp1454
g12
g13
sg14
S'Bitstream Charter'
p1455
sg16
I400
sg17
g13
sg18
g13
sg19
g1214
sg21
g22
sbag7
(g8
g9
NtRp1456
(dp1457
g12
g13
sg14
S'URW Bookman L'
p1458
sg16
I400
sg17
g13
sg18
g13
sg19
g1215
sg21
g22
sbag7
(g8
g9
NtRp1459
(dp1460
g12
g29
sg14
S'Bitstream Charter'
p1461
sg16
I400
sg17
g13
sg18
g13
sg19
g1216
sg21
g22
sbag7
(g8
g9
NtRp1462
(dp1463
g12
g13
sg14
S'URW Bookman L'
p1464
sg16
I700
sg17
g13
sg18
g13
sg19
g1217
sg21
g22
sbag7
(g8
g9
NtRp1465
(dp1466
g12
g29
sg14
S'URW Gothic L'
p1467
sg16
I400
sg17
g13
sg18
g13
sg19
g1218
sg21
g22
sbag7
(g8
g9
NtRp1468
(dp1469
g12
g13
sg14
S'Nimbus Sans L'
p1470
sg16
I700
sg17
g160
sg18
g13
sg19
g1219
sg21
g22
sbag7
(g8
g9
NtRp1471
(dp1472
g12
g29
sg14
S'URW Chancery L'
p1473
sg16
I500
sg17
g13
sg18
g13
sg19
g1220
sg21
g22
sbag7
(g8
g9
NtRp1474
(dp1475
g12
g29
sg14
S'Nimbus Mono L'
p1476
sg16
I700
sg17
g13
sg18
g13
sg19
g1221
sg21
g22
sbag7
(g8
g9
NtRp1477
(dp1478
g12
g13
sg14
S'Nimbus Sans L'
p1479
sg16
I400
sg17
g160
sg18
g13
sg19
g1222
sg21
g22
sbag7
(g8
g9
NtRp1480
(dp1481
g12
g13
sg14
S'Nimbus Sans L'
p1482
sg16
I700
sg17
g13
sg18
g13
sg19
g1223
sg21
g22
sbag7
(g8
g9
NtRp1483
(dp1484
g12
g29
sg14
S'Bitstream Charter'
p1485
sg16
I700
sg17
g13
sg18
g13
sg19
g1224
sg21
g22
sbag7
(g8
g9
NtRp1486
(dp1487
g12
g29
sg14
S'Nimbus Sans L'
p1488
sg16
I700
sg17
g160
sg18
g13
sg19
g1225
sg21
g22
sbag7
(g8
g9
NtRp1489
(dp1490
g12
g13
sg14
S'Nimbus Sans L'
p1491
sg16
I400
sg17
g13
sg18
g13
sg19
g1226
sg21
g22
sbag7
(g8
g9
NtRp1492
(dp1493
g12
g13
sg14
S'Dingbats'
p1494
sg16
I400
sg17
g13
sg18
g13
sg19
g1227
sg21
g22
sbag7
(g8
g9
NtRp1495
(dp1496
g12
g29
sg14
S'URW Bookman L'
p1497
sg16
I700
sg17
g13
sg18
g13
sg19
g1228
sg21
g22
sbag7
(g8
g9
NtRp1498
(dp1499
g12
g13
sg14
S'URW Gothic L'
p1500
sg16
I400
sg17
g13
sg18
g13
sg19
g1229
sg21
g22
sbag7
(g8
g9
NtRp1501
(dp1502
g12
g29
sg14
S'Courier 10 Pitch'
p1503
sg16
I400
sg17
g13
sg18
g13
sg19
g1230
sg21
g22
sbag7
(g8
g9
NtRp1504
(dp1505
g12
g13
sg14
S'Nimbus Mono L'
p1506
sg16
I700
sg17
g13
sg18
g13
sg19
g1231
sg21
g22
sbag7
(g8
g9
NtRp1507
(dp1508
g12
g13
sg14
S'Courier 10 Pitch'
p1509
sg16
I700
sg17
g13
sg18
g13
sg19
g1232
sg21
g22
sbag7
(g8
g9
NtRp1510
(dp1511
g12
g29
sg14
S'URW Gothic L'
p1512
sg16
I600
sg17
g13
sg18
g13
sg19
g1234
sg21
g22
sbag7
(g8
g9
NtRp1513
(dp1514
g12
g29
sg14
S'Century Schoolbook L'
p1515
sg16
I400
sg17
g13
sg18
g13
sg19
g1235
sg21
g22
sbag7
(g8
g9
NtRp1516
(dp1517
g12
g29
sg14
S'Nimbus Sans L'
p1518
sg16
I400
sg17
g13
sg18
g13
sg19
g1236
sg21
g22
sbag7
(g8
g9
NtRp1519
(dp1520
g12
g13
sg14
S'Nimbus Mono L'
p1521
sg16
I400
sg17
g13
sg18
g13
sg19
g1237
sg21
g22
sbag7
(g8
g9
NtRp1522
(dp1523
g12
g29
sg14
S'Nimbus Sans L'
p1524
sg16
I400
sg17
g160
sg18
g13
sg19
g1238
sg21
g22
sbag7
(g8
g9
NtRp1525
(dp1526
g12
g29
sg14
S'URW Palladio L'
p1527
sg16
I400
sg17
g13
sg18
g13
sg19
g1239
sg21
g22
sbag7
(g8
g9
NtRp1528
(dp1529
g12
g13
sg14
S'URW Palladio L'
p1530
sg16
I500
sg17
g13
sg18
g13
sg19
g1241
sg21
g22
sbag7
(g8
g9
NtRp1531
(dp1532
g12
g13
sg14
S'URW Gothic L'
p1533
sg16
I600
sg17
g13
sg18
g13
sg19
g1242
sg21
g22
sbag7
(g8
g9
NtRp1534
(dp1535
g12
g29
sg14
S'Century Schoolbook L'
p1536
sg16
I700
sg17
g13
sg18
g13
sg19
g1243
sg21
g22
sbag7
(g8
g9
NtRp1537
(dp1538
g12
g29
sg14
S'URW Bookman L'
p1539
sg16
I400
sg17
g13
sg18
g13
sg19
g1244
sg21
g22
sbag7
(g8
g9
NtRp1540
(dp1541
g12
g13
sg14
S'Century Schoolbook L'
p1542
sg16
I700
sg17
g13
sg18
g13
sg19
g1245
sg21
g22
sbag7
(g8
g9
NtRp1543
(dp1544
g12
g29
sg14
S'Nimbus Mono L'
p1545
sg16
I400
sg17
g13
sg18
g13
sg19
g1246
sg21
g22
sbag7
(g8
g9
NtRp1546
(dp1547
g12
g13
sg14
S'Century Schoolbook L'
p1548
sg16
I500
sg17
g13
sg18
g13
sg19
g1247
sg21
g22
sbag7
(g8
g9
NtRp1549
(dp1550
g12
g29
sg14
S'Nimbus Roman No9 L'
p1551
sg16
I400
sg17
g13
sg18
g13
sg19
g1248
sg21
g22
sbag7
(g8
g9
NtRp1552
(dp1553
g12
g13
sg14
S'Nimbus Roman No9 L'
p1554
sg16
I400
sg17
g13
sg18
g13
sg19
g1249
sg21
g22
sbag7
(g8
g9
NtRp1555
(dp1556
g12
g29
sg14
S'Courier 10 Pitch'
p1557
sg16
I700
sg17
g13
sg18
g13
sg19
g1250
sg21
g22
sbag7
(g8
g9
NtRp1558
(dp1559
g12
g13
sg14
S'Bitstream Charter'
p1560
sg16
I700
sg17
g13
sg18
g13
sg19
g1251
sg21
g22
sbag7
(g8
g9
NtRp1561
(dp1562
g12
g13
sg14
S'Courier 10 Pitch'
p1563
sg16
I400
sg17
g13
sg18
g13
sg19
g1252
sg21
g22
sbasb.