(dp1
S'chatRoom_plugin'
p2
ccopy_reg
_reconstructor
p3
(ctwisted.plugin
CachedDropin
p4
c__builtin__
object
p5
NtRp6
(dp7
S'moduleName'
p8
S'twisted.plugins.chatRoom_plugin'
p9
sS'description'
p10
NsS'plugins'
p11
(lp12
g3
(ctwisted.plugin
CachedPlugin
p13
g5
NtRp14
(dp15
S'provided'
p16
(lp17
ctwisted.application.service
IServiceMaker
p18
actwisted.plugin
IPlugin
p19
asS'dropin'
p20
g6
sS'name'
p21
S'service_maker'
p22
sg10
NsbasbsS'echo'
p23
g3
(g4
g5
NtRp24
(dp25
g8
S'twisted.plugins.echo'
p26
sg10
Nsg11
(lp27
g3
(g13
g5
NtRp28
(dp29
g16
(lp30
g18
ag19
asg20
g24
sg21
S'serviceMaker'
p31
sg10
Nsbasbs.